(itrigram
Trigram
p1
(dp2
S'length'
p3
F5471.4726536829185
sS'lut'
p4
(dp5
V b
p6
(dp7
Va
I7
sVe
I568
sVi
I11
sVl
I17
sVo
I20
sVr
I56
sVu
I188
sVy
I148
ssV c
p8
(dp9
Va
I189
sVe
I20
sVd
I2
sVi
I12
sVh
I74
sVl
I16
sVo
I463
sVr
I22
sVu
I2
ssVgu
p10
(dp11
Va
I9
sVe
I5
sVi
I9
sVm
I1
sVl
I2
sVn
I3
sVr
I1
sVt
I1
ssV a
p12
(dp13
V 
I330
sVc
I85
sVb
I70
sVd
I47
sVg
I73
sVf
I83
sVi
I3
sVm
I148
sVl
I216
sVn
I858
sVp
I48
sVs
I282
sVr
I101
sVu
I15
sVt
I203
sVw
I28
sVv
I7
ssV f
p14
(dp15
Va
I109
sVe
I95
sVi
I76
sVl
I16
sVo
I371
sVr
I155
sVu
I23
sVt
I2
ssV g
p16
(dp17
Va
I16
sVe
I45
sVi
I68
sVl
I8
sVo
I89
sVr
I81
sVu
I11
ssV d
p18
(dp19
Va
I90
sVe
I275
sVi
I178
sVo
I142
sVr
I24
sVu
I18
sVw
I1
ssV e
p20
(dp21
Va
I48
sVc
I3
sVd
I12
sVf
I12
sVi
I7
sVm
I13
sVl
I14
sVn
I107
sVq
I17
sVp
I1
sVs
I26
sVr
I5
sVt
I31
sVv
I132
sVy
I10
sVx
I117
ssV j
p22
(dp23
Ve
I11
sVu
I41
sVo
I11
ssV k
p24
(dp25
Vi
I22
sVe
I14
sVn
I90
ssV h
p26
(dp27
Va
I525
sVe
I739
sVi
I320
sVo
I168
sVu
I33
sVy
I2
ssV i
p28
(dp29
Vd
I17
sVg
I3
sVf
I62
sVm
I87
sVl
I14
sVn
I599
sVs
I287
sVr
I3
sVt
I254
ssV n
p30
(dp31
Va
I19
sVu
I5
sVe
I98
sVi
I10
sVo
I438
ssV o
p32
(dp33
Vc
I14
sVb
I32
sVd
I2
sVf
I741
sVl
I9
sVn
I225
sVp
I36
sVs
I1
sVr
I90
sVu
I70
sVt
I44
sVw
I47
sVv
I20
ssV l
p34
(dp35
Va
I80
sVe
I154
sVi
I107
sVo
I115
sVs
I4
sVu
I1
ssV m
p36
(dp37
Va
I319
sVe
I281
sVg
I1
sVi
I107
sVo
I229
sVu
I149
sVy
I347
ssV r
p38
(dp39
Vi
I18
sVu
I12
sVe
I378
sVa
I20
sVo
I25
ssV s
p40
(dp41
Va
I111
sVc
I31
sVe
I206
sVi
I105
sVh
I339
sVm
I7
sVl
I7
sVo
I297
sVp
I70
sVu
I197
sVt
I85
sVw
I6
sVy
I5
ssV p
p42
(dp43
Va
I102
sVe
I104
sVi
I7
sVh
I2
sVl
I63
sVo
I84
sVr
I205
sVu
I22
ssV q
p44
(dp45
Vu
I40
ssV v
p46
(dp47
Va
I23
sVi
I40
sVe
I95
sVo
I4
ssV w
p48
(dp49
Va
I243
sVe
I172
sVi
I425
sVh
I382
sVo
I157
sVr
I39
ssV t
p50
(dp51
Va
I56
sVe
I60
sVi
I69
sVh
I1425
sVm
I1
sVo
I997
sVr
I66
sVu
I4
sVw
I21
ssV u
p52
(dp53
Vg
I1
sVi
I1
sVn
I132
sVp
I26
sVs
I50
sVr
I10
sVt
I4
ssV z
p54
(dp55
Vi
I1
ssVgn
p56
(dp57
Va
I2
sV 
I7
sVe
I3
sVi
I6
sV,
I2
sVo
I4
sVs
I1
ssV x
p58
(dp59
V 
I1
ssV y
p60
(dp61
Vi
I2
sVe
I38
sVo
I469
ssV-Y
p62
(dp63
Vo
I3
ssVlk
p64
(dp65
Vi
I5
sV 
I2
sVs
I3
sVe
I3
ssVgi
p66
(dp67
Vb
I1
sVe
I4
sVn
I111
sVr
I29
sVt
I5
sVv
I45
sVz
I2
ssVgh
p68
(dp69
V 
I61
sVb
I1
sVe
I3
sVi
I2
sV,
I7
sVl
I11
sVt
I170
sV;
I2
ssV B
p70
(dp71
Va
I5
sVE
I1
sVi
I1
sVo
I2
sVR
I2
sVu
I12
sVy
I6
sVU
I2
sVe
I6
ssV C
p72
(dp73
Va
I15
sVA
I8
sVe
I1
sVh
I58
sVl
I2
sVO
I31
sV.
I6
sVr
I2
sVo
I33
ssV-g
p74
(dp75
Vr
I1
ssV A
p76
(dp77
V 
I3
sVr
I1
sVB
I1
sVd
I8
sVg
I1
sVf
I3
sVS
I3
sVm
I4
sVl
I14
sVN
I2
sVs
I11
sVR
I2
sVu
I6
sVT
I1
sVw
I1
sVn
I5
sVL
I5
sVt
I11
ssV F
p78
(dp79
Va
I2
sVo
I7
sVi
I1
sVl
I1
sVO
I4
sV.
I1
sVI
I1
sVr
I89
sVT
I2
sVR
I2
ssV G
p80
(dp81
VE
I2
sVi
I1
sVo
I4
sVI
I1
sVu
I17
sVU
I9
sVe
I1
ssV D
p82
(dp83
VA
I3
sVe
I32
sVi
I3
sVO
I3
sVI
I3
sVu
I2
sVo
I7
sVE
I29
ssV E
p84
(dp85
VB
I2
sVD
I1
sVv
I4
sVl
I1
sVn
I4
sVd
I9
sVT
I6
sVX
I1
sVV
I2
sVx
I2
sVN
I1
sVt
I9
ssV J
p86
(dp87
Va
I60
sVu
I1
sVo
I18
sVO
I17
ssVtw
p88
(dp89
Vi
I1
sVa
I2
sVe
I18
sVo
I17
ssVtt
p90
(dp91
Va
I28
sVe
I129
sVi
I11
sVl
I36
sVr
I6
sVy
I4
ssV I
p92
(dp93
V 
I766
sVF
I3
sVI
I2
sVs
I2
sVf
I25
sVM
I1
sVL
I1
sVN
I7
sVS
I1
sVt
I27
sVV
I1
sVX
I1
sV;
I1
sVn
I12
sV,
I5
sVT
I1
ssVtr
p94
(dp95
Va
I39
sVe
I58
sVi
I31
sVo
I23
sVu
I33
sVy
I18
ssVts
p96
(dp97
V 
I63
sV"
I1
sVe
I4
sV*
I1
sV,
I20
sV.
I10
sV;
I3
ssV L
p98
(dp99
Va
I96
sVA
I35
sVE
I1
sVI
I5
sVo
I22
sVi
I1
sVe
I6
ssV M
p100
(dp101
Va
I62
sVA
I2
sVC
I1
sVe
I1
sVG
I1
sVi
I32
sVO
I1
sV.
I2
sVy
I35
sVR
I40
sVu
I2
sVo
I12
sVY
I1
sVE
I4
sVr
I96
sVU
I1
sVI
I1
ssV R
p102
(dp103
VE
I5
sVe
I81
sVo
I1
sV.
I4
ssV S
p104
(dp105
VO
I1
sVA
I4
sVE
I1
sV 
I1
sVi
I64
sVh
I42
sVM
I2
sVm
I6
sVo
I5
sV.
I20
sVp
I1
sVu
I90
sVt
I24
sVH
I3
sVI
I2
sVU
I24
sVe
I10
sVT
I1
ssV P
p106
(dp107
Va
I7
sVA
I1
sVe
I1
sVl
I3
sVO
I1
sV.
I1
sVR
I9
sVU
I4
sVo
I7
sVr
I29
ssVtm
p108
(dp109
Va
I2
sV 
I4
sV"
I1
sVe
I12
sVo
I3
ssV V
p110
(dp111
Va
I1
sV 
I1
sVe
I66
sVI
I3
sVo
I1
sV.
I4
sVE
I50
ssV W
p112
(dp113
VA
I4
sVe
I27
sVi
I11
sVh
I33
sVo
I1
sVH
I1
ssVth
p114
(dp115
Va
I378
sV 
I240
sVe
I1023
sV'
I4
sVf
I4
sVi
I255
sVh
I1
sVl
I3
sVo
I105
sV.
I9
sVs
I10
sVr
I15
sV!
I1
sVy
I5
sVu
I1
sV;
I2
sV:
I1
sV,
I10
ssVti
p116
(dp117
Va
I6
sVc
I42
sVb
I4
sVe
I29
sVf
I21
sVm
I71
sVl
I41
sVo
I338
sVn
I114
sVs
I18
sVr
I16
sVt
I9
sVv
I27
ssVtf
p118
(dp119
Vu
I18
ssV [
p120
(dp121
VE
I1
sVD
I1
sVg
I1
sV*
I3
sVM
I1
sV1
I4
sV3
I2
sV2
I3
sVt
I3
sVx
I1
ssVG-
p122
(dp123
V 
I1
sVt
I4
sVT
I1
ssVte
p124
(dp125
Va
I11
sV 
I126
sVc
I5
sVe
I11
sVd
I149
sVg
I2
sVf
I5
sVm
I28
sVl
I69
sVp
I1
sVn
I150
sV.
I8
sVs
I24
sVr
I287
sVv
I8
sVx
I46
sV;
I1
sV:
I1
sV,
I13
sV?
I1
ssV-y
p126
(dp127
Vo
I2
ssVtc
p128
(dp129
Vh
I29
sV.
I1
ssVta
p130
(dp131
Vc
I31
sVb
I19
sVg
I12
sVf
I3
sVi
I30
sVk
I50
sVl
I27
sVn
I61
sVs
I1
sVr
I3
sVu
I2
sVt
I57
sVy
I9
sVx
I3
sV,
I1
ssV "
p132
(dp133
VA
I3
sVC
I2
sVB
I2
sVD
I2
sVG
I1
sVF
I3
sVI
I22
sVH
I3
sVM
I3
sVO
I2
sVN
I4
sVP
I6
sVS
I6
sVR
I1
sVW
I2
sVY
I2
sVa
I1
sVb
I4
sVd
I1
sVi
I2
sVh
I2
sVo
I2
sVp
I1
sVs
I1
sVr
I1
sVt
I2
sVw
I2
sVy
I2
ssV #
p134
(dp135
V9
I1
sV6
I1
ssS'  '
p136
(dp137
V 
I606
sV#
I1
sV"
I9
sV&
I1
sV(
I4
sV*
I12
sV-
I3
sV2
I2
sVA
I19
sVC
I47
sVB
I4
sVE
I8
sVD
I8
sVG
I2
sVF
I17
sVI
I68
sVH
I6
sVJ
I7
sVM
I56
sVL
I34
sVO
I3
sVN
I2
sVP
I12
sVS
I37
sVR
I15
sVU
I9
sVT
I26
sVW
I20
sVV
I18
sVY
I33
sVX
I32
sV[
I12
sVa
I172
sVc
I92
sVb
I78
sVe
I62
sVd
I78
sVg
I25
sVf
I67
sVi
I107
sVh
I118
sVk
I7
sVj
I8
sVm
I103
sVl
I35
sVo
I81
sVn
I40
sVq
I4
sVp
I65
sVs
I128
sVr
I49
sVu
I25
sVt
I140
sVw
I108
sVv
I11
sVy
I34
ssV &
p138
(dp139
Vc
I20
ssV $
p140
(dp141
V2
I1
ssV *
p142
(dp143
VB
I1
sVE
I2
sV*
I8
sVn
I1
sVT
I1
sVW
I1
sVe
I1
ssV: 
p144
(dp145
Va
I4
sV 
I4
sVb
I3
sVF
I1
sVi
I3
sVh
I2
sVM
I3
sVl
I1
sVo
I1
sVm
I2
sVI
I3
sVS
I1
sV"
I3
sVt
I3
sVw
I1
sVy
I1
sVs
I1
ssV (
p146
(dp147
Va
I7
sVC
I1
sVI
I2
sVh
I1
sV*
I1
sVo
I5
sVi
I2
sVs
I1
sVT
I1
sV~
I1
sV_
I1
sVt
I1
ssV .
p148
(dp149
V 
I2
sVs
I1
sVt
I1
ssV /
p150
(dp151
V 
I1
sVe
I1
ssV -
p152
(dp153
Va
I1
sV-
I2
ssV 2
p154
(dp155
V8
I1
sV7
I1
sV0
I5
ssV 3
p156
(dp157
V1
I1
sV0
I1
ssVGE
p158
(dp159
VS
I3
sVT
I3
sVN
I1
ssV 1
p160
(dp161
V9
I3
sV0
I4
ssV 6
p162
(dp163
V1
I1
sV0
I1
ssVWI
p164
(dp165
VS
I1
ssV 4
p166
(dp167
V0
I1
ssVg 
p168
(dp169
V(
I1
sVA
I2
sVC
I2
sVE
I4
sVD
I1
sVF
I1
sVI
I1
sVH
I1
sVM
I5
sVL
I5
sVP
I1
sVS
I2
sVR
I3
sVV
I1
sVa
I60
sVc
I12
sVb
I25
sVe
I14
sVd
I10
sVg
I4
sVf
I16
sVi
I48
sVh
I50
sVm
I57
sVl
I11
sVo
I35
sVn
I7
sVq
I1
sVp
I9
sVs
I26
sVr
I4
sVu
I6
sVt
I113
sVw
I33
sVv
I5
sVy
I8
ssVg/
p170
(dp171
VC
I1
ssVg.
p172
(dp173
V 
I22
ssV 8
p174
(dp175
V0
I2
ssVGL
p176
(dp177
VI
I1
ssV <
p178
(dp179
Vh
I1
ssV =
p180
(dp181
V 
I1
ssVAS
p182
(dp183
V 
I1
sVC
I2
sV-
I1
ssVgg
p184
(dp185
Ve
I8
sVl
I1
ssVGu
p186
(dp187
Ve
I2
sVt
I15
ssVt:
p188
(dp189
V 
I2
ssVt;
p190
(dp191
V 
I32
ssVt9
p192
(dp193
V0
I1
sV6
I1
ssV--
p194
(dp195
V 
I2
sV"
I1
sV-
I3
sVF
I1
sVI
I14
sVM
I2
sVS
I1
sVU
I1
sVT
I2
sVY
I3
sVa
I2
sVb
I2
sVe
I1
sVd
I1
sVg
I1
sVf
I1
sVi
I2
sVh
I2
sVm
I1
sVn
I1
sVp
I1
sVs
I4
sVt
I5
sVw
I1
sVv
I1
sVy
I2
ssVCl
p196
(dp197
Va
I2
ssVge
p198
(dp199
V!
I1
sV 
I49
sVd
I32
sVf
I1
sV)
I1
sVm
I8
sV,
I7
sVo
I1
sVn
I37
sVs
I7
sVr
I35
sVt
I44
sV;
I5
sV.
I8
ssVt.
p200
(dp201
V 
I99
sV"
I2
ssVt/
p202
(dp203
Va
I1
sVe
I1
ssVt,
p204
(dp205
V 
I187
sV"
I5
ssV-I
p206
(dp207
V 
I14
sVS
I1
ssVt*
p208
(dp209
V 
I1
ssVVO
p210
(dp211
VU
I1
ssVt)
p212
(dp213
V 
I2
sV,
I1
ssVGo
p214
(dp215
Va
I1
sVd
I2
sVo
I2
ssVt'
p216
(dp217
Vs
I3
ssVt"
p218
(dp219
V)
I1
ssVt 
p220
(dp221
V#
I1
sV(
I3
sV1
I2
sV<
I1
sVA
I1
sVC
I10
sVB
I1
sVE
I1
sVD
I1
sVG
I15
sVF
I18
sVI
I114
sVH
I3
sVM
I18
sVL
I10
sVO
I1
sVP
I2
sVS
I10
sVR
I10
sVT
I3
sVW
I1
sVY
I1
sV[
I1
sVa
I170
sVc
I46
sVb
I98
sVe
I35
sVd
I44
sVg
I21
sVf
I69
sVi
I167
sVh
I180
sVk
I18
sVj
I3
sVm
I104
sVl
I50
sVo
I179
sVn
I42
sVq
I6
sVp
I50
sVs
I123
sVr
I35
sVu
I17
sVt
I253
sVw
I153
sVv
I10
sVy
I60
ssVt!
p222
(dp223
V 
I6
sV"
I7
ssVEM
p224
(dp225
VE
I1
sVN
I1
ssVzi
p226
(dp227
Vp
I2
sVn
I3
ssV3]
p228
(dp229
V 
I2
ssVze
p230
(dp231
V 
I5
sVs
I1
sVm
I1
sVd
I6
sV.
I1
ssVM.
p232
(dp233
V 
I3
ssVza
p234
(dp235
V 
I2
sVr
I1
ssVgo
p236
(dp237
V 
I12
sV:
I1
sVe
I1
sVi
I18
sV,
I4
sVo
I30
sVn
I12
sVu
I8
sVt
I9
sVv
I5
sV.
I3
ssVaw
p238
(dp239
Va
I25
sV 
I11
sVe
I1
sV'
I4
sVi
I4
sVk
I2
sV,
I2
sV.
I1
sVs
I2
sVy
I1
sVn
I5
ssVEN
p240
(dp241
V 
I2
sVC
I1
sVB
I7
sVE
I1
sVD
I4
sVT
I3
ssVlw
p242
(dp243
Va
I27
ssVEI
p244
(dp245
VT
I1
ssVyw
p246
(dp247
Vh
I2
ssVgm
p248
(dp249
Ve
I8
sVo
I3
ssVF 
p250
(dp251
VA
I1
sVD
I1
sVM
I1
sVS
I1
sVT
I1
sVW
I1
sVY
I3
ssVgl
p252
(dp253
Va
I9
sVy
I6
sVe
I7
sVi
I2
sVo
I2
ssVbh
p254
(dp255
Vo
I3
ssVmt
p256
(dp257
Vh
I4
ssVmf
p258
(dp259
Vo
I11
ssV@l
p260
(dp261
Vo
I1
ssV@p
p262
(dp263
Vo
I1
ssVt@
p264
(dp265
Vp
I1
ssVg,
p266
(dp267
V 
I40
ssVrd
p268
(dp269
Va
I4
sV 
I51
sVe
I13
sVi
I13
sV,
I5
sVo
I1
sV.
I5
sV)
I1
sVs
I19
sVn
I1
sV!
I3
sV;
I4
sV:
I2
sVl
I7
ssVe'
p270
(dp271
Vs
I8
ssVMe
p272
(dp273
Vl
I4
ssV-e
p274
(dp275
Vn
I1
ssVMa
p276
(dp277
Vi
I46
sVc
I1
sVr
I15
sVm
I2
ssVms
p278
(dp279
V 
I18
sV,
I1
sVe
I13
sVt
I9
sVp
I1
ssV-d
p280
(dp281
Vi
I1
sVa
I3
sVo
I1
ssVe!
p282
(dp283
V 
I16
sV"
I2
ssVMo
p284
(dp285
Vt
I10
sVn
I2
ssVMi
p286
(dp287
Vs
I29
sVc
I2
sVd
I1
ssVSp
p288
(dp289
Ve
I1
ssVMu
p290
(dp291
Vc
I2
ssV-f
p292
(dp293
Va
I1
sVi
I1
sVo
I1
ssVbj
p294
(dp295
Vu
I1
sVe
I21
ssVMr
p296
(dp297
Vs
I31
sV.
I67
ssV-a
p298
(dp299
V 
I1
sVn
I2
ssVEB
p300
(dp301
VC
I2
ssVMy
p302
(dp303
V 
I37
ssVO 
p304
(dp305
Vw
I1
sVI
I1
sVH
I1
sVM
I21
sVL
I16
sVO
I1
sVS
I2
sVR
I2
sVT
I3
sVW
I1
sVY
I2
ssVME
p306
(dp307
V 
I5
sVR
I2
sVD
I2
sV,
I1
ssVMG
p308
(dp309
VE
I1
ssVMA
p310
(dp311
VI
I3
sVY
I1
sVL
I2
sVG
I3
sVD
I1
ssVtx
p312
(dp313
Vt
I3
ssVMC
p314
(dp315
VI
I1
ssVMB
p316
(dp317
VE
I1
ssV31
p318
(dp319
V,
I1
ssVty
p320
(dp321
V 
I101
sV"
I2
sVi
I1
sV)
I1
sV-
I2
sV,
I21
sVl
I2
sVp
I1
sV;
I5
sV.
I7
ssVMI
p322
(dp323
VS
I1
sVT
I3
ssVMU
p324
(dp325
V 
I1
sVS
I1
sV"
I1
ssV3*
p326
(dp327
VE
I1
ssV; 
p328
(dp329
Va
I90
sVo
I3
sVb
I62
sVe
I1
sVD
I1
sVf
I12
sVI
I27
sVh
I21
sVm
I2
sVL
I1
sVO
I1
sVn
I9
sVi
I9
sVs
I8
sV"
I7
sVt
I9
sVw
I9
sVy
I11
sVR
I1
sVd
I1
ssVMP
p330
(dp331
VL
I1
ssV K
p332
(dp333
VI
I1
sVi
I1
sVe
I3
sVn
I1
ssVf;
p334
(dp335
V 
I7
ssVp-
p336
(dp337
V-
I1
ssVMY
p338
(dp339
V 
I1
ssV H
p340
(dp341
Va
I7
sVA
I3
sVe
I64
sVi
I7
sVo
I10
sVI
I7
sVu
I4
sVE
I4
ssV"d
p342
(dp343
Vo
I1
ssVFR
p344
(dp345
VO
I2
ssVtu
p346
(dp347
Va
I25
sVb
I1
sVd
I5
sVi
I1
sVl
I8
sVo
I1
sVn
I20
sVp
I3
sVr
I64
sVt
I3
ssVFT
p348
(dp349
VP
I2
ssVix
p350
(dp351
Vi
I2
sV 
I4
sVe
I10
sVt
I4
ssV N
p352
(dp353
Va
I1
sVE
I2
sVo
I9
sVU
I1
sVO
I7
sVe
I2
ssVg?
p354
(dp355
V 
I1
sV"
I2
ssV' 
p356
(dp357
Vp
I1
ssV O
p358
(dp359
V 
I1
sVC
I1
sVF
I6
sVh
I1
sVf
I1
sVN
I1
sVR
I10
sVu
I4
sVT
I2
sVn
I5
sV.
I1
ssVS*
p360
(dp361
V*
I1
sVV
I1
ssVtp
p362
(dp363
V 
I2
ssVS-
p364
(dp365
VI
I1
ssVS,
p366
(dp367
V 
I1
ssVS"
p368
(dp369
V.
I1
ssVS 
p370
(dp371
Vc
I1
sVb
I1
sVe
I1
sVd
I1
sVF
I2
sVf
I1
sVv
I1
sVO
I4
sVS
I1
sVo
I1
sVV
I2
sVE
I2
ssV't
p372
(dp373
V 
I1
ssVFO
p374
(dp375
VR
I6
ssVtn
p376
(dp377
Vi
I4
sVe
I6
ssVFr
p378
(dp379
Vi
I4
sVe
I87
sVo
I2
ssV"N
p380
(dp381
Vo
I4
ssVm!
p382
(dp383
V 
I2
ssVm 
p384
(dp385
V(
I3
sVC
I3
sVI
I12
sVM
I6
sVL
I4
sVS
I1
sVW
I1
sVa
I57
sVc
I6
sVb
I9
sVe
I15
sVd
I6
sVg
I14
sVf
I19
sVi
I17
sVh
I26
sVk
I2
sVm
I14
sVl
I3
sVo
I15
sVn
I14
sVp
I8
sVs
I43
sVr
I7
sVu
I3
sVt
I53
sVw
I14
sVv
I5
sVy
I10
ssVto
p386
(dp387
V 
I900
sVg
I12
sVf
I2
sVm
I2
sV-
I5
sVl
I18
sVo
I54
sV.
I1
sVp
I2
sVr
I31
sVu
I1
sVt
I6
sVw
I35
sVn
I18
sV;
I1
sV:
I1
sV,
I1
sV?
I1
ssVm-
p388
(dp389
V 
I1
sV-
I2
ssVm,
p390
(dp391
V 
I52
ssVO.
p392
(dp393
V 
I1
ssVm.
p394
(dp395
V 
I28
sV"
I1
ssVm)
p396
(dp397
V.
I1
ssVtl
p398
(dp399
Vy
I53
sVe
I53
ssVFa
p400
(dp401
Vc
I1
sVr
I1
ssVd!
p402
(dp403
V 
I7
sV"
I2
ssV-v
p404
(dp405
Ve
I1
ssVvi
p406
(dp407
Vc
I15
sVe
I9
sVd
I7
sVg
I1
sVl
I8
sVo
I25
sVn
I71
sVs
I26
sVr
I1
sVt
I14
sVv
I2
ssVFi
p408
(dp409
Vl
I1
ssVu?
p410
(dp411
V 
I1
ssVm>
p412
(dp413
V 
I1
ssVFl
p414
(dp415
Ve
I1
ssVm;
p416
(dp417
V 
I6
ssVFo
p418
(dp419
Vr
I7
ssVoq
p420
(dp421
Vu
I6
ssVir
p422
(dp423
Va
I9
sV 
I81
sVc
I11
sVe
I64
sVi
I15
sVm
I8
sVl
I29
sVo
I2
sV,
I6
sVs
I31
sVr
I3
sVu
I1
sVt
I11
sVy
I2
sV;
I1
sV.
I1
ssV T
p424
(dp425
Ve
I2
sVi
I1
sVh
I69
sVo
I12
sVr
I1
sVu
I2
sVO
I49
sVH
I11
ssV9.
p426
(dp427
V9
I1
ssViu
p428
(dp429
Vc
I1
sVm
I8
sVs
I1
ssV U
p430
(dp431
Vp
I9
sVS
I1
sVN
I2
sVn
I8
ssVSu
p432
(dp433
Vs
I79
sVr
I1
sVm
I8
sVc
I2
ssVSt
p434
(dp435
Va
I6
sVr
I18
ssV99
p436
(dp437
V7
I1
sV6
I1
ssVSi
p438
(dp439
Vs
I1
sVr
I59
sVl
I2
sVn
I3
ssVSh
p440
(dp441
Ve
I42
ssVSo
p442
(dp443
Vm
I3
sV,
I1
sVl
I1
ssVSm
p444
(dp445
Va
I5
sVi
I6
ssVG.
p446
(dp447
V;
I1
ssV90
p448
(dp449
V 
I2
ssV93
p450
(dp451
V*
I1
ssVvo
p452
(dp453
Vc
I3
sVi
I7
sVk
I7
sVl
I3
sVu
I23
sVt
I4
sVw
I2
ssV94
p454
(dp455
V6
I1
ssV97
p456
(dp457
V1
I1
sV 
I1
ssV96
p458
(dp459
V 
I2
ssVme
p460
(dp461
Va
I34
sV 
I265
sVe
I9
sVd
I39
sVf
I1
sV-
I2
sVm
I12
sV,
I52
sVo
I1
sVn
I143
sVs
I75
sVr
I26
sV!
I4
sVt
I30
sVw
I3
sV;
I11
sV.
I37
sV?
I3
sVl
I5
ssV-r
p462
(dp463
Vo
I7
ssVmg
p464
(dp465
Ve
I1
ssV Y
p466
(dp467
Ve
I3
sVO
I8
sVo
I56
ssVma
p468
(dp469
V 
I3
sVc
I7
sVz
I1
sVd
I28
sVg
I13
sVi
I23
sVk
I53
sV'
I1
sVm
I4
sVl
I14
sVn
I115
sVs
I6
sVr
I52
sVt
I48
sVy
I75
sV.
I1
sV,
I1
ssVmb
p470
(dp471
Vi
I1
sVa
I3
sVr
I1
sVe
I14
sVl
I7
ssVmm
p472
(dp473
Va
I12
sVu
I3
sVe
I34
sVi
I4
sVo
I12
ssVml
p474
(dp475
Vy
I6
sVe
I1
ssVmo
p476
(dp477
Vd
I4
sVm
I15
sVo
I1
sVn
I45
sVs
I50
sVr
I91
sVu
I13
sVt
I69
sVv
I13
ssVmn
p478
(dp479
Vi
I3
sV 
I2
sVs
I1
sVe
I1
ssVmi
p480
(dp481
Va
I7
sVe
I1
sVd
I5
sVg
I31
sVl
I40
sVn
I72
sVs
I49
sVr
I10
sVt
I24
sVx
I5
ssVvr
p482
(dp483
Ve
I1
ssVSU
p484
(dp485
VC
I1
sVS
I23
ssVST
p486
(dp487
VA
I2
sV 
I1
sVR
I2
sVE
I1
ssVmu
p488
(dp489
Vc
I54
sVs
I100
sVl
I2
sVn
I3
ssVRW
p490
(dp491
VI
I1
ssVSI
p492
(dp493
VR
I2
sVB
I1
sVO
I2
ssVSH
p494
(dp495
VE
I3
ssVSO
p496
(dp497
VN
I18
ssVmp
p498
(dp499
Va
I28
sVe
I16
sVh
I3
sVl
I31
sVo
I23
sVr
I18
sVu
I13
sVt
I17
ssVSM
p500
(dp501
VA
I2
ssVUT
p502
(dp503
VI
I1
sV 
I5
sV*
I1
sVE
I7
ssVSC
p504
(dp505
VI
I2
sVL
I1
ssV"p
p506
(dp507
Vu
I1
ssVSA
p508
(dp509
VM
I4
sVN
I23
ssVmy
p510
(dp511
V 
I292
sVs
I56
sV;
I1
ssV.9
p512
(dp513
V3
I1
ssVSE
p514
(dp515
VQ
I1
sV 
I2
sVN
I2
sV.
I1
ssVLe
p516
(dp517
Va
I1
sVt
I5
ssV"r
p518
(dp519
Ve
I1
ssVYO
p520
(dp521
VU
I8
ssVLa
p522
(dp523
Vk
I1
sVd
I76
sVn
I19
ssVLo
p524
(dp525
Vn
I22
ssVf:
p526
(dp527
V 
I1
ssV"s
p528
(dp529
Vm
I1
ssVGU
p530
(dp531
VT
I10
ssVRP
p532
(dp533
VO
I1
ssVf 
p534
(dp535
V2
I1
sV8
I1
sVD
I1
sVF
I15
sVI
I14
sVH
I1
sVM
I17
sVL
I12
sVP
I1
sVS
I5
sVR
I6
sVT
I1
sVV
I1
sVa
I75
sVc
I28
sVb
I11
sVe
I14
sVd
I9
sVg
I10
sVf
I16
sVi
I49
sVh
I134
sVk
I1
sVj
I1
sVm
I70
sVl
I16
sVo
I18
sVn
I9
sVq
I3
sVp
I15
sVs
I45
sVr
I17
sVu
I5
sVt
I119
sVw
I22
sVv
I6
sVy
I55
ssVf!
p536
(dp537
V 
I1
ssVdm
p538
(dp539
Vi
I14
ssVUS
p540
(dp541
VA
I23
sVI
I1
sVE
I1
sVT
I1
ssV 9
p542
(dp543
V0
I1
ssVf,
p544
(dp545
V 
I22
ssVf-
p546
(dp547
Vc
I1
sVw
I1
ssVf.
p548
(dp549
V 
I11
ssVs;
p550
(dp551
V 
I34
ssVs:
p552
(dp553
V 
I6
ssVLD
p554
(dp555
V 
I3
ssVLE
p556
(dp557
VT
I1
ssV,"
p558
(dp559
V 
I22
ssVe"
p560
(dp561
V 
I1
ssV, 
p562
(dp563
V"
I19
sV&
I19
sV1
I1
sV2
I2
sVA
I2
sVC
I4
sVB
I1
sVE
I3
sVD
I2
sVF
I4
sVI
I121
sVH
I1
sVM
I3
sVL
I2
sVO
I2
sVP
I1
sVS
I3
sVR
I3
sVT
I1
sV[
I1
sVa
I430
sVc
I26
sVb
I111
sVe
I16
sVd
I15
sVg
I4
sVf
I56
sVi
I96
sVh
I73
sVk
I3
sVj
I2
sVm
I59
sVl
I12
sVo
I53
sVn
I18
sVq
I1
sVp
I11
sVs
I46
sVr
I3
sVu
I2
sVt
I180
sVw
I142
sVv
I3
sVy
I28
ssVLA
p564
(dp565
VI
I1
sVR
I1
sVD
I35
ssVLL
p566
(dp567
V 
I2
ssV,-
p568
(dp569
V-
I19
ssVYe
p570
(dp571
Vt
I3
ssVLI
p572
(dp573
VA
I1
sV 
I1
sVC
I7
sVE
I1
sVG
I1
sVM
I3
sVS
I1
sVT
I3
ssVs*
p574
(dp575
V 
I1
sV*
I1
ssVs)
p576
(dp577
V 
I1
sV;
I1
ssVLU
p578
(dp579
VS
I1
sVD
I2
ssVs.
p580
(dp581
V 
I119
sV"
I3
ssV,0
p582
(dp583
V0
I3
ssVs,
p584
(dp585
V 
I191
sV"
I1
ssVs"
p586
(dp587
V.
I1
ssVs!
p588
(dp589
V!
I1
sV 
I10
ssVs 
p590
(dp591
V"
I5
sV(
I1
sV*
I1
sVC
I2
sVD
I1
sVF
I5
sVI
I40
sVM
I21
sVL
I8
sVP
I3
sVS
I12
sVR
I4
sVV
I7
sV[
I1
sVa
I235
sVc
I71
sVb
I62
sVe
I62
sVd
I53
sVg
I31
sVf
I62
sVi
I126
sVh
I96
sVk
I3
sVj
I15
sVm
I111
sVl
I32
sVo
I127
sVn
I85
sVq
I6
sVp
I53
sVs
I129
sVr
I36
sVu
I17
sVt
I181
sVw
I87
sVv
I24
sVy
I28
ssVs'
p592
(dp593
V 
I1
sVs
I6
ssVr!
p594
(dp595
V 
I6
ssVfr
p596
(dp597
Vi
I36
sVa
I11
sVe
I11
sVo
I110
ssVo?
p598
(dp599
V 
I1
sV"
I1
ssVft
p600
(dp601
Vy
I1
sVp
I2
sVe
I36
sVw
I2
sV 
I12
ssVfu
p602
(dp603
Vs
I12
sVr
I8
sVt
I4
sVl
I58
sVn
I4
ssVL 
p604
(dp605
VP
I2
sVD
I1
sVo
I1
sV6
I1
ssVu!
p606
(dp607
V)
I1
sV 
I3
ssVfy
p608
(dp609
Vi
I4
sV 
I9
sV,
I1
ssVL,
p610
(dp611
V 
I1
ssVI;
p612
(dp613
V 
I1
ssV?0
p614
(dp615
V0
I1
ssVfa
p616
(dp617
Vc
I16
sVi
I19
sVm
I24
sVl
I4
sVn
I7
sVs
I10
sVr
I18
sVu
I6
sVt
I20
sVv
I14
ssVSS
p618
(dp619
VI
I1
sV 
I3
ssVr?
p620
(dp621
V 
I3
sV"
I4
ssVfe
p622
(dp623
Va
I20
sV 
I14
sVc
I72
sVe
I47
sV'
I3
sVm
I1
sV,
I10
sV.
I5
sVs
I9
sVr
I41
sV!
I1
sVt
I4
sVw
I15
sV?
I1
sVl
I10
ssVff
p624
(dp625
Va
I10
sV 
I9
sVe
I73
sVi
I14
sV,
I1
sVo
I9
ssVUD
p626
(dp627
VI
I2
ssVfi
p628
(dp629
Va
I1
sVc
I25
sVe
I22
sVd
I4
sVg
I1
sVf
I2
sVl
I10
sVn
I30
sVs
I2
sVr
I31
sVt
I10
sVv
I2
sVx
I10
ssVfl
p630
(dp631
Vi
I10
sVe
I3
sVu
I11
sVa
I6
sVo
I1
ssVH 
p632
(dp633
VD
I1
sVO
I1
ssVfo
p634
(dp635
Vr
I454
sVu
I20
sVl
I13
sVo
I3
sVn
I3
ssVCY
p636
(dp637
V 
I23
sV.
I5
ssVg'
p638
(dp639
Vs
I7
ssVsy
p640
(dp641
V 
I13
sVm
I2
sVl
I3
sV,
I3
sV;
I1
sV.
I3
ssVEv
p642
(dp643
Ve
I4
ssVYo
p644
(dp645
Vu
I61
ssVY.
p646
(dp647
V 
I5
ssVss
p648
(dp649
Va
I14
sV 
I133
sV:
I1
sVe
I40
sVi
I87
sVm
I3
sV,
I17
sVo
I5
sV.
I10
sV!
I3
sVu
I19
sVw
I1
sV;
I8
sVn
I1
sVl
I2
ssVY 
p650
(dp651
VB
I1
sVE
I1
sVD
I12
sVK
I1
sVM
I1
sVO
I3
sVS
I24
sVT
I7
ssVsp
p652
(dp653
Va
I5
sVe
I67
sVi
I31
sVl
I8
sVo
I34
sVr
I1
sVu
I2
ssVsw
p654
(dp655
Va
I1
sVe
I11
sVo
I1
ssVsu
p656
(dp657
Va
I18
sVc
I70
sVb
I30
sVe
I2
sVd
I5
sVg
I2
sVf
I11
sVi
I6
sVm
I1
sVl
I3
sVn
I3
sVp
I31
sVs
I13
sVr
I89
ssVst
p658
(dp659
Va
I98
sV 
I307
sV:
I1
sVe
I75
sV!
I1
sVi
I61
sV-
I2
sVm
I2
sV,
I24
sVo
I42
sV.
I5
sVs
I2
sVr
I52
sVu
I7
sVy
I5
sV;
I5
sVn
I2
sVl
I6
ssVsk
p660
(dp661
V 
I8
sVe
I2
sV)
I1
sV,
I2
sV.
I1
sVi
I3
ssVsi
p662
(dp663
Vc
I5
sVb
I39
sVd
I31
sVg
I19
sVm
I3
sVl
I19
sVo
I56
sVn
I82
sVp
I3
sVs
I40
sVr
I17
sVt
I64
sVv
I10
sVx
I5
sVz
I2
ssVsh
p664
(dp665
Va
I65
sV 
I45
sVe
I214
sVi
I34
sVm
I10
sV,
I3
sVo
I83
sVn
I1
sVr
I3
sVu
I2
sVy
I4
sVl
I1
ssVso
p666
(dp667
V 
I139
sVc
I9
sVb
I1
sVf
I7
sVm
I81
sVl
I44
sVo
I38
sVn
I73
sVr
I23
sVu
I4
sV.
I5
sV,
I4
ssVsn
p668
(dp669
V1
I4
sVe
I7
ssVsm
p670
(dp671
Va
I7
sVi
I7
sVe
I3
sVo
I1
ssVsl
p672
(dp673
Vi
I13
sVy
I9
sVe
I2
sVa
I3
ssVsc
p674
(dp675
Va
I18
sVe
I3
sVi
I9
sVh
I12
sVl
I5
sVo
I17
sVr
I13
sVu
I1
ssVsb
p676
(dp677
Va
I17
sVe
I1
ssVsa
p678
(dp679
Vc
I5
sVb
I7
sVd
I8
sVg
I5
sVf
I3
sVi
I25
sVk
I3
sVm
I12
sVl
I5
sVn
I82
sVp
I6
sVr
I12
sVu
I1
sVt
I34
sVw
I10
sVv
I4
sVy
I28
ssVUB
p680
(dp681
VL
I2
ssVsg
p682
(dp683
Va
I1
sVu
I1
ssVsf
p684
(dp685
Vy
I2
sVi
I10
sVe
I1
sVa
I6
ssVse
p686
(dp687
V!
I2
sV 
I179
sV)
I1
sV,
I32
sV.
I15
sV;
I3
sV:
I2
sV?
I2
sVa
I3
sVc
I12
sVe
I85
sVd
I68
sVf
I1
sVm
I6
sVl
I126
sVn
I99
sVq
I8
sVp
I10
sVs
I23
sVr
I54
sVt
I12
sVw
I1
sVv
I14
sVx
I2
ssVsd
p688
(dp689
Va
I8
ssVy)
p690
(dp691
V 
I2
sV.
I1
ssVh:
p692
(dp693
V 
I1
ssVy-
p694
(dp695
V-
I2
sVm
I1
sVt
I2
ssVy,
p696
(dp697
V 
I106
sV"
I2
ssVy.
p698
(dp699
V 
I56
sV"
I2
ssVy!
p700
(dp701
V 
I3
sV"
I1
ssVy 
p702
(dp703
V(
I4
sV1
I1
sVC
I2
sVB
I1
sVD
I2
sVF
I1
sVI
I9
sVH
I3
sVJ
I5
sVM
I3
sVL
I1
sVO
I1
sVP
I1
sVS
I72
sVR
I2
sVT
I1
sVV
I1
sVa
I136
sVc
I51
sVb
I72
sVe
I40
sVd
I128
sVg
I26
sVf
I64
sVi
I69
sVh
I79
sVk
I7
sVj
I5
sVm
I49
sVl
I35
sVo
I106
sVn
I21
sVp
I53
sVs
I94
sVr
I46
sVu
I22
sVt
I158
sVw
I76
sVv
I10
sVy
I17
ssV 5
p704
(dp705
V%
I1
ssVGI
p706
(dp707
VN
I3
sVV
I1
ssV% 
p708
(dp709
Vo
I4
ssVy'
p710
(dp711
Vs
I2
ssVRe
p712
(dp713
Va
I1
sVp
I1
sVg
I78
sVf
I1
ssVy;
p714
(dp715
V 
I29
ssV!"
p716
(dp717
V 
I14
ssVV.
p718
(dp719
V 
I4
ssVy?
p720
(dp721
V 
I1
ssVRo
p722
(dp723
Vy
I1
ssVSa
p724
(dp725
Vy
I1
ssVRi
p726
(dp727
Vg
I1
ssVRT
p728
(dp729
VI
I1
sV*
I2
ssV25
p730
(dp731
V 
I1
ssVld
p732
(dp733
V 
I277
sVe
I5
sV'
I7
sVi
I3
sV-
I1
sV,
I30
sVo
I3
sV.
I11
sVr
I8
sVn
I1
sV;
I2
sV:
I1
sV?
I1
ssVle
p734
(dp735
V!
I4
sV 
I203
sV"
I1
sV'
I2
sV,
I36
sV.
I14
sV;
I4
sV:
I1
sVa
I92
sVc
I19
sVb
I1
sVe
I1
sVd
I31
sVg
I8
sVf
I12
sVi
I3
sVm
I7
sVn
I49
sVs
I59
sVr
I6
sVt
I54
sVv
I7
sVx
I4
ssV20
p736
(dp737
V0
I4
sV%
I1
ssVlc
p738
(dp739
Vu
I3
sVo
I3
ssVRR
p740
(dp741
VA
I4
ssVla
p742
(dp743
V 
I1
sVc
I24
sVb
I3
sVd
I27
sVg
I4
sVi
I23
sVm
I15
sVn
I36
sVp
I1
sVs
I25
sVr
I46
sVu
I9
sVt
I36
sVw
I12
sVv
I2
sVy
I11
sVx
I1
ssVln
p744
(dp745
Ve
I3
ssVlo
p746
(dp747
Vd
I3
sVg
I5
sVi
I1
sVm
I1
sVo
I34
sVn
I56
sVq
I1
sVp
I2
sVs
I13
sVr
I1
sVu
I24
sVt
I2
sVw
I39
sVv
I30
sVy
I2
ssVll
p748
(dp749
Va
I9
sV 
I379
sV:
I1
sVe
I23
sVi
I28
sV-
I11
sV,
I23
sVo
I32
sVn
I1
sV)
I1
sVs
I3
sV!
I1
sVu
I3
sVy
I84
sV;
I6
sV.
I34
sV?
I1
ssVlm
p750
(dp751
V 
I2
sVe
I1
sVl
I2
sVo
I7
sVn
I1
ssV28
p752
(dp753
V,
I1
ssV29
p754
(dp755
V.
I1
ssVli
p756
(dp757
Va
I20
sVc
I35
sVb
I12
sVe
I49
sVd
I1
sVg
I37
sVf
I15
sVh
I1
sVk
I30
sVm
I4
sVo
I8
sVn
I57
sVp
I3
sVs
I21
sVr
I8
sVt
I58
sVv
I11
ssVlv
p758
(dp759
Ve
I18
ssVRE
p760
(dp761
V!
I1
sVA
I2
sVC
I1
sVG
I3
sV 
I3
sVM
I1
sVS
I2
ssVlt
p762
(dp763
Va
I1
sV 
I9
sVe
I15
sVi
I4
sVh
I5
sV,
I1
sVo
I4
sV.
I3
sVs
I3
sVy
I6
ssVlu
p764
(dp765
Vc
I7
sVe
I14
sVd
I17
sVn
I1
sVs
I7
sVr
I1
sVt
I19
ssVlr
p766
(dp767
Ve
I8
ssVls
p768
(dp769
V 
I9
sVu
I4
sVe
I6
sVo
I9
sVt
I1
ssVlp
p770
(dp771
Vi
I1
sV 
I10
sV-
I1
ssVRC
p772
(dp773
VY
I28
sVH
I1
ssV-"
p774
(dp775
V 
I1
ssVRN
p776
(dp777
VO
I49
ssVRO
p778
(dp779
VJ
I7
sVM
I2
sVT
I1
sVV
I1
ssVRI
p780
(dp781
VC
I1
sVB
I1
sVN
I9
ssVly
p782
(dp783
V 
I398
sVi
I4
sV-
I1
sV,
I29
sV.
I17
sV;
I9
sVz
I1
ssVyi
p784
(dp785
Vs
I1
sVe
I2
sVn
I38
ssVym
p786
(dp787
Ve
I3
sVm
I1
sVo
I9
sVp
I1
ssVyl
p788
(dp789
Ve
I2
sVl
I3
ssVyo
p790
(dp791
Vu
I473
sVn
I18
ssVt?
p792
(dp793
V 
I3
sV"
I1
ssVya
p794
(dp795
Vb
I1
sVl
I4
ssV2]
p796
(dp797
V 
I4
ssVyb
p798
(dp799
Vo
I2
ssVye
p800
(dp801
Va
I13
sVd
I7
sVl
I1
sV,
I1
sVs
I13
sVr
I1
sVt
I21
ssV.0
p802
(dp803
V4
I1
ssVyz
p804
(dp805
Ve
I1
ssVR 
p806
(dp807
VA
I2
sVC
I1
sVB
I2
sVD
I1
sVF
I2
sVI
I2
sVi
I1
sVs
I1
sVO
I1
sVN
I1
sVP
I3
sVS
I1
sVR
I3
sVt
I2
sVv
I1
sV"
I1
ssVR,
p808
(dp809
V 
I2
sV-
I1
ssVyp
p810
(dp811
Ve
I3
ssVys
p812
(dp813
V 
I37
sVe
I55
sVi
I2
sVh
I12
sV-
I1
sV,
I2
sV.
I4
sVt
I1
ssVyr
p814
(dp815
Vi
I8
ssVyt
p816
(dp817
Vh
I27
sVe
I1
ssVm"
p818
(dp819
V 
I1
ssVCr
p820
(dp821
Ve
I1
sVu
I1
ssVl'
p822
(dp823
Vs
I1
ssVl 
p824
(dp825
V(
I1
sVE
I1
sVF
I1
sVI
I6
sVM
I1
sVN
I1
sVP
I6
sVS
I2
sVT
I1
sVW
I1
sVa
I48
sVc
I14
sVb
I43
sVe
I10
sVd
I14
sVg
I8
sVf
I26
sVi
I26
sVh
I24
sVk
I7
sVj
I1
sVm
I23
sVl
I11
sVo
I29
sVn
I31
sVq
I2
sVp
I13
sVs
I32
sVr
I13
sVu
I4
sVt
I74
sVw
I13
sVv
I3
sVy
I16
ssVl!
p826
(dp827
V 
I4
ssVl.
p828
(dp829
V 
I48
ssVl,
p830
(dp831
V 
I48
ssVl-
p832
(dp833
Vb
I1
sVd
I1
sVf
I2
sV-
I1
sVo
I2
sVn
I2
sVu
I1
sVt
I1
ssVl)
p834
(dp835
V 
I1
sV.
I1
ssVAs
p836
(dp837
V 
I7
sVs
I3
sVk
I1
ssV-M
p838
(dp839
Vr
I2
sVe
I3
ssVl?
p840
(dp841
V"
I1
ssVl:
p842
(dp843
V 
I2
ssVl;
p844
(dp845
V 
I8
ssVem
p846
(dp847
Va
I28
sV 
I27
sVb
I17
sVe
I60
sVi
I4
sV-
I1
sV,
I3
sVo
I21
sVn
I6
sVp
I26
sVs
I12
sVu
I1
sVy
I1
sV;
I1
sV.
I4
ssVel
p848
(dp849
Va
I11
sV 
I23
sVc
I3
sVe
I16
sVd
I7
sVf
I116
sVi
I95
sVl
I78
sVo
I8
sV.
I1
sVp
I12
sVs
I5
sVt
I9
sVv
I7
sVy
I111
ssVeo
p850
(dp851
Vp
I2
sVv
I2
sVu
I3
sVn
I1
ssVen
p852
(dp853
V!
I1
sV 
I287
sV*
I2
sV-
I1
sV,
I23
sV.
I6
sV;
I3
sV:
I1
sV?
I1
sVa
I11
sVc
I94
sVb
I15
sVe
I47
sVd
I140
sVg
I26
sVi
I21
sVj
I5
sVl
I1
sVo
I20
sVn
I2
sVq
I2
sVs
I57
sVr
I3
sVu
I1
sVt
I388
sVv
I1
sVy
I1
sVz
I2
ssVei
p854
(dp855
Vg
I5
sVn
I51
sVp
I1
sVs
I3
sVr
I18
sVt
I17
sVv
I38
ssVh,
p856
(dp857
V 
I30
ssV8,
p858
(dp859
V 
I1
ssVej
p860
(dp861
Ve
I2
sVu
I5
sVo
I5
ssVee
p862
(dp863
Va
I11
sV 
I62
sVc
I2
sVd
I37
sVi
I15
sVk
I14
sVm
I29
sV,
I1
sVn
I106
sVp
I21
sVs
I4
sVr
I5
sVt
I35
sVl
I43
ssVed
p864
(dp865
V!
I5
sV 
I663
sVe
I91
sVd
I1
sVg
I6
sVi
I43
sV-
I2
sV,
I94
sVo
I1
sVn
I4
sV.
I34
sVs
I1
sVu
I13
sVy
I2
sV;
I14
sV:
I2
sV]
I1
sV?
I1
sVl
I4
ssVeg
p866
(dp867
Va
I20
sV 
I1
sVe
I1
sVg
I3
sVi
I84
sVl
I5
sVr
I20
sVu
I5
ssVef
p868
(dp869
Va
I2
sV 
I4
sVe
I13
sVf
I12
sVi
I6
sV,
I1
sVo
I59
sVl
I3
sVr
I1
sVu
I19
sVt
I12
sVy
I2
ssVea
p870
(dp871
V 
I12
sVc
I24
sVb
I11
sVd
I49
sVg
I9
sVk
I31
sVl
I55
sVn
I30
sVs
I119
sVr
I216
sVu
I5
sVt
I81
sVv
I48
sV;
I1
sVz
I2
sV,
I1
ssVec
p872
(dp873
Va
I8
sVe
I70
sVi
I17
sVh
I2
sVk
I2
sVl
I14
sVo
I17
sV.
I1
sVr
I1
sVu
I13
sVt
I216
ssVeb
p874
(dp875
Vy
I1
sVa
I1
sVr
I1
sVe
I1
sVt
I3
ssVEx
p876
(dp877
Vc
I1
sVe
I1
ssVex
p878
(dp879
Va
I14
sVc
I35
sVe
I9
sVi
I9
sV,
I2
sVq
I1
sVp
I55
sVu
I1
sVt
I69
ssV82
p880
(dp881
V 
I1
sV5
I1
ssVet
p882
(dp883
Va
I7
sV 
I86
sVc
I14
sVe
I69
sVi
I16
sVh
I38
sV,
I14
sVo
I5
sV.
I16
sVs
I3
sVr
I8
sVu
I27
sVt
I72
sVw
I14
sVy
I20
sV;
I2
sVn
I1
sVl
I2
ssVew
p884
(dp885
Va
I3
sV 
I28
sVe
I1
sVi
I2
sVh
I4
sV.
I1
sVs
I8
sV;
I1
ssVev
p886
(dp887
Vi
I18
sVa
I3
sVe
I293
sVo
I7
ssVeq
p888
(dp889
Vu
I47
ssVep
p890
(dp891
Va
I22
sV 
I10
sVe
I16
sVi
I5
sVl
I16
sVo
I6
sVs
I1
sVr
I17
sVu
I2
sVt
I21
ssVes
p892
(dp893
V!
I2
sV 
I212
sV'
I5
sV)
I1
sV-
I1
sV,
I45
sV.
I16
sV;
I7
sV:
I2
sV?
I2
sV]
I2
sVa
I1
sVc
I12
sVe
I63
sVd
I4
sVi
I32
sVh
I1
sVo
I23
sVp
I29
sVs
I204
sVu
I2
sVt
I127
ssVer
p894
(dp895
V!
I5
sV 
I839
sV'
I31
sV-
I9
sV,
I166
sV.
I84
sV;
I30
sV:
I3
sV?
I7
sVa
I51
sVc
I17
sVe
I240
sVd
I4
sVg
I17
sVf
I28
sVi
I142
sVh
I15
sVj
I1
sVm
I23
sVl
I9
sVo
I9
sVn
I91
sVp
I4
sVs
I184
sVr
I11
sVt
I46
sVw
I10
sVv
I33
sVy
I142
ssVrt
p896
(dp897
Va
I38
sV@
I1
sVe
I19
sV 
I62
sVi
I62
sVh
I20
sVf
I4
sVm
I4
sV,
I13
sVo
I3
sVn
I4
sVs
I8
sVu
I24
sVy
I18
sV;
I2
sV.
I2
sVl
I4
ssVru
p898
(dp899
Vc
I4
sVb
I3
sVe
I15
sVd
I6
sVg
I1
sVi
I1
sVm
I1
sVl
I4
sVn
I7
sVp
I5
sVs
I9
sVt
I7
ssVrv
p900
(dp901
Va
I6
sVi
I6
sVe
I22
ssVE.
p902
(dp903
V 
I1
ssVrp
p904
(dp905
Vr
I11
sVe
I1
sVl
I1
sVo
I4
ssVs]
p906
(dp907
V 
I2
ssVrr
p908
(dp909
Va
I7
sVe
I18
sVi
I48
sVo
I8
sVu
I4
sVy
I35
ssVrs
p910
(dp911
Va
I13
sV 
I92
sVe
I81
sVd
I4
sV'
I1
sVi
I11
sVh
I1
sV,
I39
sVo
I18
sV.
I42
sV)
I1
sVu
I17
sVt
I44
sV;
I4
sV?
I1
ssVE!
p912
(dp913
V*
I1
ssVry
p914
(dp915
V 
I191
sVb
I1
sVi
I20
sV,
I13
sVo
I1
sV.
I7
sVt
I15
sVw
I1
sV;
I2
sV?
I1
ssVe]
p916
(dp917
V 
I1
ssVre
p918
(dp919
V!
I3
sV 
I363
sV)
I1
sV,
I66
sV.
I23
sV;
I13
sV?
I2
sVa
I183
sVc
I68
sVb
I2
sVe
I64
sVd
I194
sVg
I19
sVf
I49
sVi
I1
sVh
I7
sVj
I10
sVm
I50
sVl
I54
sVo
I2
sVn
I43
sVq
I21
sVp
I44
sVs
I183
sVr
I2
sVt
I63
sVw
I4
sVv
I35
sVy
I1
ssVey
p920
(dp921
V 
I39
sVe
I10
sVm
I8
sV,
I3
sVo
I10
sV.
I2
sV;
I1
ssVrg
p922
(dp923
V 
I13
sVe
I21
sVi
I9
sV,
I1
sV/
I1
sVu
I1
sVo
I4
sVy
I1
ssVra
p924
(dp925
Vc
I29
sVb
I34
sVd
I7
sVg
I13
sVi
I18
sVm
I4
sVl
I23
sVo
I4
sVn
I36
sVp
I2
sVs
I5
sVr
I5
sVu
I1
sVt
I64
sVw
I8
sVv
I3
sVy
I4
ssVrb
p926
(dp927
Vi
I5
sVa
I3
sVe
I2
sVo
I1
ssVrc
p928
(dp929
Ve
I25
sVi
I4
sVh
I52
sVo
I7
sVu
I10
sVy
I27
ssVrl
p930
(dp931
V!
I2
sV 
I12
sVe
I9
sVd
I21
sV'
I1
sVi
I2
sV,
I8
sVo
I5
sV.
I3
sVs
I1
sVa
I1
sVy
I21
sV;
I1
ssVrm
p932
(dp933
Va
I12
sV 
I17
sVe
I13
sVi
I28
sV,
I8
sVl
I5
sV)
I1
sVs
I6
sVt
I4
sV.
I1
ssVrn
p934
(dp935
Va
I8
sV 
I20
sVe
I35
sVi
I16
sV,
I1
sVo
I65
sV.
I3
sVs
I1
sVt
I3
ssVro
p936
(dp937
V-
I1
sVa
I5
sVc
I6
sVb
I13
sVd
I8
sVg
I5
sVf
I8
sVi
I1
sVh
I1
sVk
I1
sVj
I28
sVm
I124
sVl
I5
sVo
I27
sVn
I18
sVp
I21
sVs
I9
sVr
I4
sVu
I38
sVt
I35
sVw
I12
sVv
I20
sVy
I5
ssVrh
p938
(dp939
Va
I15
sVo
I1
ssVri
p940
(dp941
Va
I25
sVc
I94
sVb
I19
sVe
I56
sVd
I10
sVg
I28
sVf
I5
sVk
I2
sVm
I4
sVl
I6
sVo
I28
sVn
I98
sVp
I4
sVs
I12
sVu
I3
sVt
I52
sVv
I34
sVz
I9
ssVrj
p942
(dp943
Vo
I1
ssVrk
p944
(dp945
Va
I1
sV 
I7
sVe
I6
sV-
I1
sVl
I5
sV,
I2
sVs
I2
sV.
I2
ssVe-
p946
(dp947
V-
I7
sV 
I1
sVb
I1
sVM
I3
ssVe,
p948
(dp949
V 
I318
sV"
I6
sV-
I3
ssVe.
p950
(dp951
V 
I157
sVc
I1
sV"
I4
ssVe)
p952
(dp953
V 
I3
sV;
I1
ssVED
p954
(dp955
VI
I3
sV 
I5
sV,
I1
ssVEG
p956
(dp957
VI
I3
sVL
I1
ssVEF
p958
(dp959
VO
I1
ssVEA
p960
(dp961
VC
I1
sVR
I1
sVD
I1
sVV
I1
ssVe 
p962
(dp963
V"
I2
sV$
I1
sV(
I3
sV1
I1
sV6
I1
sVA
I8
sVC
I25
sVB
I1
sVE
I2
sVD
I2
sVG
I1
sVF
I4
sVI
I36
sVH
I3
sVM
I10
sVL
I3
sVP
I16
sVS
I5
sVR
I4
sVU
I1
sVT
I3
sVW
I1
sVV
I4
sV[
I1
sVa
I268
sVc
I141
sVb
I100
sVe
I83
sVd
I102
sVg
I56
sVf
I115
sVi
I245
sVh
I238
sVk
I17
sVj
I8
sVm
I209
sVl
I70
sVo
I254
sVn
I89
sVq
I7
sVp
I109
sVs
I234
sVr
I68
sVu
I29
sVt
I380
sVw
I233
sVv
I28
sVy
I59
ssVEC
p964
(dp965
VT
I8
ssV")
p966
(dp967
V.
I1
ssVAn
p968
(dp969
Vd
I6
ssVe?
p970
(dp971
V 
I13
sV"
I1
ssVEY
p972
(dp973
V 
I1
ssVEX
p974
(dp975
VP
I1
sVT
I6
sV?
I1
ssVe;
p976
(dp977
V 
I55
ssVe:
p978
(dp979
V 
I5
ssVET
p980
(dp981
V 
I3
sVE
I6
sVT
I1
ssVEW
p982
(dp983
V 
I1
ssVEV
p984
(dp985
VE
I2
ssVEQ
p986
(dp987
VU
I1
ssVES
p988
(dp989
V 
I4
sVS
I2
sVE
I1
sV,
I1
sV.
I1
ssVER
p990
(dp991
V 
I7
sVC
I1
sVE
I1
sVG
I7
sVI
I7
sV*
I1
sV,
I3
sVN
I49
sVS
I1
sVW
I1
ssVEl
p992
(dp993
Ve
I1
ssVEn
p994
(dp995
Vd
I1
sVg
I3
ssVEd
p996
(dp997
Vw
I9
ssVNO
p998
(dp999
V 
I2
sVT
I5
sVN
I49
ssVr:
p1000
(dp1001
V 
I6
ssVr;
p1002
(dp1003
V 
I36
ssVr'
p1004
(dp1005
Vs
I31
ssVr 
p1006
(dp1007
V(
I1
sV3
I1
sV4
I1
sVA
I8
sVC
I6
sVB
I1
sVE
I1
sVF
I8
sVI
I21
sVH
I1
sVJ
I49
sVM
I15
sVL
I7
sVS
I20
sVR
I9
sV[
I2
sVa
I152
sVc
I53
sVb
I42
sVe
I46
sVd
I55
sVg
I19
sVf
I75
sVi
I59
sVh
I104
sVk
I8
sVj
I3
sVm
I116
sVl
I47
sVo
I88
sVn
I20
sVq
I1
sVp
I47
sVs
I100
sVr
I34
sVu
I21
sVt
I189
sVw
I79
sVv
I8
sVy
I15
sVz
I1
ssVGi
p1008
(dp1009
Vv
I1
ssVr,
p1010
(dp1011
V 
I181
sV"
I2
sV-
I9
ssVEt
p1012
(dp1013
Ve
I11
ssVr.
p1014
(dp1015
V 
I158
sV"
I3
sV0
I1
ssVr@
p1016
(dp1017
Vl
I1
ssVr)
p1018
(dp1019
V,
I1
ssVr*
p1020
(dp1021
V*
I1
ssVw'
p1022
(dp1023
Vs
I5
ssVNC
p1024
(dp1025
VI
I1
sVE
I1
sVL
I3
sVO
I1
ssVxc
p1026
(dp1027
Vi
I2
sVu
I13
sVe
I17
sVl
I3
sVh
I1
ssVxa
p1028
(dp1029
Vc
I5
sVm
I4
sVt
I4
sVg
I1
ssV1]
p1030
(dp1031
V 
I3
ssVUE
p1032
(dp1033
VN
I1
ssVxe
p1034
(dp1035
Vc
I2
sVr
I5
sVm
I1
sVs
I2
sVd
I12
ssVxx
p1036
(dp1037
V1
I1
sVx
I4
sV]
I1
ssVjo
p1038
(dp1039
Vi
I9
sVy
I8
sVk
I1
sVu
I4
ssVxp
p1040
(dp1041
Vr
I10
sVe
I27
sVl
I16
sVo
I2
ssVxq
p1042
(dp1043
Vu
I1
ssVxt
p1044
(dp1045
V 
I31
sVe
I8
sV)
I1
sV,
I6
sV/
I2
sV.
I2
sVs
I12
sVr
I10
sVu
I1
sVo
I1
sV9
I2
ssVM 
p1046
(dp1047
VI
I1
sVE
I1
sVT
I2
ssVu,
p1048
(dp1049
V 
I42
sV"
I3
ssVIE
p1050
(dp1051
VS
I3
sVD
I1
ssVeu
p1052
(dp1053
V!
I2
sVv
I1
sV,
I5
sV.
I2
ssV-F
p1054
(dp1055
Vr
I1
ssV?"
p1056
(dp1057
V 
I13
ssV0%
p1058
(dp1059
V 
I3
ssV.;
p1060
(dp1061
V 
I1
ssV<h
p1062
(dp1063
Va
I1
ssVx]
p1064
(dp1065
V 
I1
ssV-i
p1066
(dp1067
Vs
I1
sVn
I8
ssV? 
p1068
(dp1069
VA
I3
sV 
I1
sVB
I1
sVF
I1
sVI
I4
sVH
I1
sVa
I1
sVM
I3
sVN
I1
sVS
I2
sVR
I1
sVU
I1
sVT
I2
sVW
I6
sVY
I2
ssV"h
p1070
(dp1071
Ve
I2
ssVX?
p1072
(dp1073
V0
I1
ssVc,
p1074
(dp1075
V 
I3
ssVXI
p1076
(dp1077
VI
I6
sV 
I3
sVX
I3
sVV
I3
ssVx.
p1078
(dp1079
Vx
I1
sVc
I1
ssVKe
p1080
(dp1081
Ve
I2
sVn
I1
ssVx 
p1082
(dp1083
Va
I1
sV 
I1
sVd
I1
sVh
I1
sV1
I1
sVr
I1
sVw
I1
sVy
I1
ssVKn
p1084
(dp1085
Vo
I1
ssVPo
p1086
(dp1087
Vs
I1
sVo
I6
ssVRG
p1088
(dp1089
V"
I1
sV-
I6
ssVXX
p1090
(dp1091
VI
I10
sV 
I2
sVX
I10
sVV
I8
ssVXP
p1092
(dp1093
VR
I1
ssVx1
p1094
(dp1095
V0
I1
ssV$2
p1096
(dp1097
V 
I1
ssVXT
p1098
(dp1099
V 
I3
sVS
I3
ssVY,
p1100
(dp1101
V 
I1
ssV11
p1102
(dp1103
V.
I1
ssV10
p1104
(dp1105
Va
I1
sV 
I1
sV%
I2
sV,
I1
sV.
I2
sV0
I1
sVx
I1
ssVOf
p1106
(dp1107
V 
I1
sVf
I1
ssV-U
p1108
(dp1109
Vn
I1
ssV19
p1110
(dp1111
V9
I2
sV7
I1
ssV18
p1112
(dp1113
V2
I1
ssVKI
p1114
(dp1115
VN
I1
ssVu 
p1116
(dp1117
VM
I1
sVR
I1
sVa
I33
sVc
I19
sVb
I2
sVe
I4
sVd
I12
sVg
I3
sVf
I3
sVi
I3
sVh
I18
sVk
I11
sVm
I30
sVl
I3
sVo
I8
sVn
I4
sVp
I4
sVs
I12
sVr
I7
sVu
I2
sVt
I21
sVw
I42
sVv
I1
ssV&c
p1118
(dp1119
V,
I1
sV.
I19
ssVAg
p1120
(dp1121
Va
I1
ssV1*
p1122
(dp1123
V*
I1
ssV1,
p1124
(dp1125
V 
I1
ssV1.
p1126
(dp1127
V 
I2
sVt
I1
ssVDO
p1128
(dp1129
VM
I2
sVN
I1
ssV-T
p1130
(dp1131
Vh
I2
sVM
I1
ssV-p
p1132
(dp1133
Vr
I1
ssVDI
p1134
(dp1135
VC
I2
sVE
I1
sVD
I1
sVN
I2
sVS
I2
sVR
I1
sVU
I1
sVT
I1
ssVDE
p1136
(dp1137
VA
I2
sV 
I29
sVD
I1
sVM
I1
sVN
I1
sVR
I2
sVX
I1
ssVRA
p1138
(dp1139
VC
I1
sVN
I4
ssVDA
p1140
(dp1141
VM
I3
ssVw:
p1142
(dp1143
V 
I1
ssV*n
p1144
(dp1145
Vo
I1
ssVF.
p1146
(dp1147
V 
I1
ssVDY
p1148
(dp1149
V 
I35
ssV*e
p1150
(dp1151
Vx
I1
ssV/ 
p1152
(dp1153
VC
I1
ssVDo
p1154
(dp1155
V 
I6
sVn
I1
ssVk 
p1156
(dp1157
Va
I13
sVc
I1
sVb
I2
sVe
I3
sVd
I1
sVf
I10
sVI
I4
sV(
I1
sVH
I1
sVm
I9
sVl
I1
sVo
I13
sVq
I1
sVp
I2
sVs
I2
sVu
I1
sVt
I14
sVw
I6
sVh
I3
sVy
I5
sVi
I5
ssVx,
p1158
(dp1159
V 
I2
ssVDi
p1160
(dp1161
Vs
I1
sVr
I1
sVd
I2
ssV*T
p1162
(dp1163
Vh
I4
sVH
I2
ssVk)
p1164
(dp1165
V,
I1
ssV*W
p1166
(dp1167
VA
I1
sVe
I1
ssVk.
p1168
(dp1169
V 
I6
ssVk-
p1170
(dp1171
Vu
I1
ssVDa
p1172
(dp1173
Vt
I1
ssVN 
p1174
(dp1175
VI
I2
sVU
I1
sVE
I2
sVT
I32
sVV
I8
ssV*I
p1176
(dp1177
Vn
I1
ssVxi
p1178
(dp1179
Vb
I1
sVe
I6
sVl
I1
sVo
I8
sVn
I2
sVs
I4
sVt
I1
ssV*E
p1180
(dp1181
VI
I1
sVt
I1
sVN
I2
ssV*F
p1182
(dp1183
VO
I1
ssVDu
p1184
(dp1185
Vr
I2
ssVKi
p1186
(dp1187
Vs
I1
ssV*B
p1188
(dp1189
VE
I1
ssVPR
p1190
(dp1191
VI
I2
sVE
I2
sVO
I8
ssVN'
p1192
(dp1193
VT
I1
ssV*:
p1194
(dp1195
V 
I1
ssV7 
p1196
(dp1197
V 
I1
ssV-h
p1198
(dp1199
Vu
I2
sVe
I4
sVo
I2
ssV~)
p1200
(dp1201
V,
I1
ssV*)
p1202
(dp1203
V 
I1
ssV71
p1204
(dp1205
V*
I1
ssVMN
p1206
(dp1207
VI
I1
ssV.G
p1208
(dp1209
VU
I1
ssV* 
p1210
(dp1211
VY
I1
sVc
I1
sVT
I1
sVf
I1
ssV78
p1212
(dp1213
V2
I1
ssVD,
p1214
(dp1215
V 
I3
ssVQU
p1216
(dp1217
VE
I1
ssVkf
p1218
(dp1219
Va
I5
sVu
I1
ssVke
p1220
(dp1221
V!
I1
sV 
I91
sVe
I11
sVd
I27
sV-
I1
sVl
I6
sVn
I22
sVp
I3
sVs
I11
sVr
I1
sV;
I2
sV.
I2
sV,
I4
ssVki
p1222
(dp1223
Vl
I3
sVn
I63
ssVkn
p1224
(dp1225
Ve
I8
sVo
I86
ssVD 
p1226
(dp1227
VD
I2
sVM
I1
sVT
I4
sVW
I1
sVt
I2
ssVkl
p1228
(dp1229
Va
I5
ssVks
p1230
(dp1231
V 
I20
sV;
I2
sV,
I2
sV'
I1
sV.
I2
ssVSe
p1232
(dp1233
Vy
I8
sVn
I2
ssVkw
p1234
(dp1235
Va
I2
ssVky
p1236
(dp1237
V 
I3
ssVs-
p1238
(dp1239
V-
I5
ssVd.
p1240
(dp1241
V 
I61
sV"
I1
ssVd,
p1242
(dp1243
V 
I171
sV"
I2
sV-
I3
ssVgf
p1244
(dp1245
Vo
I19
ssVWA
p1246
(dp1247
VR
I4
sVN
I1
ssVBE
p1248
(dp1249
V 
I1
sVR
I8
sVF
I1
ssVd'
p1250
(dp1251
Vs
I12
ssVd"
p1252
(dp1253
V 
I1
ssVd 
p1254
(dp1255
V"
I1
sV(
I2
sVB
I2
sVE
I1
sVD
I5
sVG
I2
sVF
I5
sVI
I62
sVH
I1
sVJ
I1
sVM
I18
sVL
I5
sVS
I17
sVR
I4
sVW
I2
sV[
I1
sVa
I166
sVc
I41
sVb
I122
sVe
I45
sVd
I32
sVg
I15
sVf
I71
sVi
I115
sVh
I168
sVk
I4
sVj
I5
sVm
I109
sVl
I17
sVo
I97
sVn
I91
sVq
I4
sVp
I29
sVs
I101
sVr
I18
sVu
I20
sVt
I300
sVw
I107
sVv
I7
sVy
I42
ssVWH
p1256
(dp1257
VA
I1
ssVd?
p1258
(dp1259
V 
I2
sV"
I1
ssVJO
p1260
(dp1261
VH
I17
ssVd:
p1262
(dp1263
V 
I7
ssVd;
p1264
(dp1265
V 
I28
ssVJE
p1266
(dp1267
VC
I7
ssV-S
p1268
(dp1269
Vi
I1
ssVn-
p1270
(dp1271
Vh
I1
sV-
I4
sVl
I7
ssV=T
p1272
(dp1273
Vr
I1
ssVWe
p1274
(dp1275
V 
I21
sVr
I2
sVl
I3
sVd
I2
ssVFI
p1276
(dp1277
VT
I1
ssVWo
p1278
(dp1279
Vr
I1
ssVJu
p1280
(dp1281
Vn
I1
ssVWi
p1282
(dp1283
Vl
I5
sVg
I3
sVt
I3
ssVWh
p1284
(dp1285
Vy
I5
sVa
I10
sVe
I19
sVo
I1
ssVJo
p1286
(dp1287
Vh
I18
ssVJa
p1288
(dp1289
Vm
I54
sVn
I6
ssVMR
p1290
(dp1291
V 
I1
sVS
I30
sV.
I9
ssVAr
p1292
(dp1293
Ve
I1
sVt
I1
ssVdn
p1294
(dp1295
Vi
I2
sVe
I18
ssVdo
p1296
(dp1297
V!
I1
sV 
I51
sVe
I20
sVi
I3
sVm
I9
sVl
I3
sVo
I6
sV,
I4
sVp
I2
sVu
I23
sVw
I11
sV.
I1
sV;
I2
sVn
I44
sV?
I1
ssVdl
p1298
(dp1299
Vy
I15
sVe
I3
ssVy"
p1300
(dp1301
V 
I1
sV.
I1
ssVIG
p1302
(dp1303
VE
I1
ssVA.
p1304
(dp1305
V 
I5
ssVdi
p1306
(dp1307
Va
I24
sVc
I17
sVe
I15
sVd
I24
sVg
I4
sVf
I14
sVl
I3
sVn
I49
sVs
I128
sVr
I12
sVu
I5
sVt
I19
sVv
I1
ssVdf
p1308
(dp1309
Vu
I5
ssVdg
p1310
(dp1311
Vi
I4
sVe
I11
sVm
I8
ssVdd
p1312
(dp1313
Vi
I5
sV 
I2
sVr
I6
sVe
I11
sV,
I1
ssVde
p1314
(dp1315
Va
I104
sV 
I49
sVc
I25
sVb
I4
sVe
I25
sVd
I69
sVg
I12
sVf
I11
sVi
I1
sVj
I2
sVm
I8
sVl
I30
sVn
I34
sVp
I16
sVs
I58
sVr
I180
sVt
I29
sVv
I5
sV.
I2
sV,
I7
ssVda
p1316
(dp1317
Vb
I5
sVm
I5
sVl
I2
sVn
I11
sVr
I10
sVu
I38
sVt
I9
sVy
I40
ssVf?
p1318
(dp1319
V 
I2
ssV= 
p1320
(dp1321
VC
I1
ssVdy
p1322
(dp1323
V 
I98
sVs
I12
sV,
I3
sV.
I1
ssVdv
p1324
(dp1325
Va
I12
sVi
I10
sVo
I1
ssVdw
p1326
(dp1327
Va
I9
sVe
I1
ssVdu
p1328
(dp1329
Va
I1
sV 
I1
sVc
I37
sVe
I7
sVi
I1
sVl
I9
sVp
I1
sVr
I7
sVt
I8
ssVdr
p1330
(dp1331
Va
I8
sVe
I31
sVo
I2
ssVds
p1332
(dp1333
V 
I30
sVh
I11
sV,
I7
sVo
I6
sV.
I8
sV;
I3
ssVnm
p1334
(dp1335
Vi
I1
ssVqu
p1336
(dp1337
Vi
I54
sVa
I35
sVe
I32
ssVGe
p1338
(dp1339
Vr
I1
ssVW 
p1340
(dp1341
VG
I1
ssV(h
p1342
(dp1343
Vi
I1
ssVm:
p1344
(dp1345
V 
I1
ssVE 
p1346
(dp1347
Vo
I1
sVC
I28
sVE
I1
sVM
I1
sVs
I1
sVO
I4
sVN
I2
sVP
I1
sVS
I6
sVT
I4
sVw
I1
sVV
I7
sVt
I3
ssVd]
p1348
(dp1349
V 
I1
ssVPL
p1350
(dp1351
VI
I1
ssVPr
p1352
(dp1353
Vi
I5
sVa
I1
sVe
I2
sVo
I25
ssVuv
p1354
(dp1355
Vr
I1
ssVUL
p1356
(dp1357
VA
I1
ssVw!
p1358
(dp1359
V 
I1
ssVw 
p1360
(dp1361
VI
I3
sVL
I1
sVN
I1
sVa
I17
sVc
I4
sVb
I7
sVe
I2
sVd
I15
sVg
I4
sVf
I5
sVi
I12
sVh
I20
sVm
I12
sVl
I5
sVo
I5
sVn
I12
sVq
I1
sVp
I2
sVs
I9
sVu
I2
sVt
I25
sVw
I11
sVv
I1
sVy
I6
ssVw.
p1362
(dp1363
V 
I5
ssVw,
p1364
(dp1365
V 
I26
ssV.e
p1366
(dp1367
Vd
I1
ssV#9
p1368
(dp1369
V4
I1
ssVPa
p1370
(dp1371
Vy
I1
sVr
I5
sVg
I1
ssVrf
p1372
(dp1373
Vi
I1
sVe
I22
sVu
I7
ssVPe
p1374
(dp1375
Vr
I1
ssVBe
p1376
(dp1377
V 
I3
sVs
I2
sVl
I1
ssVw;
p1378
(dp1379
V 
I3
ssV#6
p1380
(dp1381
V 
I1
ssVPl
p1382
(dp1383
Va
I1
sVe
I2
ssV02
p1384
(dp1385
V]
I1
ssV.x
p1386
(dp1387
Vx
I1
ssV00
p1388
(dp1389
V 
I2
sV,
I2
sV.
I2
sV1
I3
sV0
I3
sV2
I1
sV=
I1
ssV01
p1390
(dp1391
V 
I1
sV.
I2
ssV."
p1392
(dp1393
V 
I23
ssV04
p1394
(dp1395
V.
I1
ssVPU
p1396
(dp1397
VR
I1
sVB
I2
sVN
I1
ssV- 
p1398
(dp1399
VH
I2
ssVuo
p1400
(dp1401
Vs
I1
ssV0=
p1402
(dp1403
VT
I1
ssV0 
p1404
(dp1405
Vx
I1
sVb
I1
sVm
I1
sVt
I1
sVd
I3
ssVPA
p1406
(dp1407
VR
I1
ssVju
p1408
(dp1409
Vs
I28
sVr
I8
sVd
I19
ssVXL
p1410
(dp1411
VI
I1
sV 
I1
ssV0.
p1412
(dp1413
V 
I1
sVz
I1
sVt
I1
sVG
I1
ssVPO
p1414
(dp1415
VS
I2
ssV0,
p1416
(dp1417
V0
I3
ssVlf
p1418
(dp1419
Va
I3
sV 
I80
sVi
I2
sV-
I2
sV,
I19
sVo
I1
sV.
I8
sV!
I1
sV;
I6
sV:
I1
sV?
I2
ssVwe
p1420
(dp1421
Va
I10
sV 
I78
sVe
I29
sVd
I10
sVl
I41
sVn
I7
sVr
I71
sVv
I36
ssVwa
p1422
(dp1423
Vb
I1
sVi
I7
sVk
I2
sVl
I4
sVn
I21
sVs
I186
sVr
I100
sVt
I5
sVy
I55
ssVlg
p1424
(dp1425
Vi
I1
sVe
I4
ssVwo
p1426
(dp1427
V 
I17
sVr
I57
sVu
I70
sVm
I25
sVn
I7
ssVwn
p1428
(dp1429
V 
I68
sV,
I11
sV.
I10
sVs
I2
sVr
I1
sV;
I3
ssVwl
p1430
(dp1431
Ve
I6
ssVwk
p1432
(dp1433
Vw
I2
ssVwi
p1434
(dp1435
Vc
I1
sVd
I4
sVf
I19
sVl
I114
sVn
I27
sVs
I49
sVt
I240
ssVwh
p1436
(dp1437
Vi
I144
sVa
I69
sVe
I85
sVy
I3
sVo
I92
ssVP 
p1438
(dp1439
Vp
I1
sVd
I1
ssV27
p1440
(dp1441
V8
I1
ssVws
p1442
(dp1443
V!
I1
sV 
I10
sVl
I1
sV,
I3
ssVwr
p1444
(dp1445
Vi
I20
sVe
I9
sVo
I10
ssV[*
p1446
(dp1447
V]
I3
ssVje
p1448
(dp1449
Va
I10
sVc
I53
sVs
I1
ssVP.
p1450
(dp1451
V 
I1
ssVwy
p1452
(dp1453
Ve
I1
ssVBa
p1454
(dp1455
Vt
I5
ssV".
p1456
(dp1457
V 
I3
ssVuf
p1458
(dp1459
Vf
I11
ssVua
p1460
(dp1461
Vd
I14
sVg
I3
sVi
I13
sVl
I31
sVn
I1
sVr
I14
sVt
I17
ssV0x
p1462
(dp1463
V.
I1
ssVRS
p1464
(dp1465
VI
I1
sV.
I30
ssV0a
p1466
(dp1467
V.
I1
ssV] 
p1468
(dp1469
Va
I3
sV 
I6
sVd
I1
sVp
I1
sVt
I1
sVY
I1
ssVck
p1470
(dp1471
V 
I12
sVe
I3
sVi
I4
sVn
I3
sVy
I3
sV.
I1
ssVci
p1472
(dp1473
Va
I21
sVe
I20
sVd
I7
sVf
I1
sVl
I5
sVo
I9
sVn
I9
sVp
I5
sVs
I5
sVr
I10
sVt
I7
sVv
I2
ssVch
p1474
(dp1475
Va
I40
sV 
I269
sVe
I43
sVi
I26
sVh
I46
sV-
I1
sVm
I9
sV,
I9
sVo
I22
sV.
I5
sVu
I3
sV;
I1
ssVco
p1476
(dp1477
Vd
I1
sVm
I128
sVl
I8
sVo
I4
sVn
I233
sVq
I5
sVp
I16
sVs
I3
sVr
I14
sVu
I134
sVv
I8
ssVcl
p1478
(dp1479
Vi
I7
sVe
I23
sVu
I20
sVa
I19
sVo
I6
ssVcc
p1480
(dp1481
Va
I12
sVe
I13
sVi
I1
sVo
I27
sVr
I1
sVu
I10
ssVca
p1482
(dp1483
V 
I54
sVc
I6
sVb
I2
sVd
I1
sV'
I12
sVm
I18
sVl
I25
sVn
I117
sVp
I11
sVs
I20
sVr
I21
sVu
I21
sVt
I27
sV"
I1
sV;
I2
sV.
I1
sV,
I14
ssVce
p1484
(dp1485
Va
I7
sV 
I178
sV:
I1
sVe
I7
sVd
I34
sV'
I1
sV)
I1
sVi
I43
sV-
I1
sVm
I5
sV,
I36
sVn
I10
sVp
I18
sVs
I49
sVr
I30
sV!
I1
sVt
I1
sV;
I7
sV.
I26
sV?
I2
sVl
I17
ssVcd
p1486
(dp1487
V 
I2
ssV60
p1488
(dp1489
V 
I1
ssV61
p1490
(dp1491
V8
I1
ssVcy
p1492
(dp1493
V!
I3
sV 
I29
sV'
I1
sVi
I1
sV-
I1
sV,
I11
sV.
I3
sVs
I1
sV;
I2
ssVA 
p1494
(dp1495
Vg
I1
ssV),
p1496
(dp1497
V 
I5
ssV).
p1498
(dp1499
V 
I4
ssVcs
p1500
(dp1501
V 
I1
sVo
I1
ssVcr
p1502
(dp1503
Va
I1
sVi
I13
sVe
I30
sVu
I3
sVy
I2
ssVcq
p1504
(dp1505
Vu
I16
ssVcu
p1506
(dp1507
Vm
I12
sVl
I31
sVn
I1
sVs
I21
sVr
I15
sVt
I5
ssVct
p1508
(dp1509
Va
I10
sV 
I88
sV"
I1
sVe
I42
sV'
I2
sVi
I97
sVl
I19
sVo
I6
sV,
I13
sVs
I5
sVr
I5
sVu
I15
sV;
I2
sV.
I9
ssVpr
p1510
(dp1511
Vi
I37
sVa
I8
sVe
I122
sVu
I6
sVo
I110
ssVps
p1512
(dp1513
V 
I14
sV-
I1
sVe
I1
sV,
I3
sVt
I2
ssVpp
p1514
(dp1515
Ve
I33
sVi
I13
sVl
I12
sVo
I37
sVr
I8
sVy
I18
ssVC.
p1516
(dp1517
V 
I6
ssVpt
p1518
(dp1519
Va
I1
sV 
I20
sVe
I6
sVi
I21
sV,
I1
sVo
I1
sVs
I2
sVu
I1
sV;
I1
ssVpu
p1520
(dp1521
Vb
I3
sVd
I3
sVl
I3
sVn
I7
sVs
I1
sVr
I8
sVt
I17
ssVpy
p1522
(dp1523
V!
I1
sV 
I16
sV,
I1
sV.
I5
sVr
I8
sV:
I1
ssVY;
p1524
(dp1525
V 
I1
ssV"y
p1526
(dp1527
Vo
I2
ssVpa
p1528
(dp1529
Vc
I3
sVb
I2
sVg
I1
sVi
I15
sVl
I1
sVn
I10
sVs
I18
sVr
I92
sVt
I18
sVy
I5
ssVpd
p1530
(dp1531
Va
I1
ssVpe
p1532
(dp1533
Va
I49
sV 
I22
sVc
I50
sVe
I5
sVd
I8
sVm
I1
sV,
I4
sVo
I2
sVn
I49
sVs
I4
sVr
I128
sVt
I2
sV;
I1
sV.
I1
sV]
I1
sVl
I3
ssVph
p1534
(dp1535
Vy
I2
sVi
I1
sVa
I1
sV 
I1
ssVpi
p1536
(dp1537
Va
I1
sVc
I1
sVe
I5
sVd
I6
sVl
I2
sVn
I32
sVs
I7
sVr
I17
sVt
I13
ssVh;
p1538
(dp1539
V 
I5
ssVpo
p1540
(dp1541
Vb
I1
sVi
I21
sVk
I9
sVl
I5
sVo
I11
sVn
I10
sVp
I1
sVs
I94
sVr
I26
sVu
I2
sVt
I3
sVw
I22
sVv
I1
ssVpl
p1542
(dp1543
Vy
I14
sVa
I69
sVe
I50
sVi
I19
sVo
I3
ssVpm
p1544
(dp1545
Ve
I1
ssVCI
p1546
(dp1547
VI
I2
sVA
I5
sVm
I1
sVD
I1
ssVCH
p1548
(dp1549
VA
I1
sV 
I2
ssVCO
p1550
(dp1551
VU
I28
sVG
I1
sVN
I3
ssVc.
p1552
(dp1553
V 
I3
sVe
I1
sV,
I18
ssVCM
p1554
(dp1555
VU
I2
ssVCL
p1556
(dp1557
VA
I1
sVU
I3
ssVTr
p1558
(dp1559
Vi
I2
ssVCA
p1560
(dp1561
VT
I8
ssVc 
p1562
(dp1563
Vd
I3
sVi
I1
sVn
I1
sVp
I1
sVr
I1
sVu
I1
sVT
I1
sVt
I1
ssVCE
p1564
(dp1565
V 
I2
ssVCD
p1566
(dp1567
VI
I2
ssV*V
p1568
(dp1569
Ve
I1
ssVCR
p1570
(dp1571
V 
I1
ssV40
p1572
(dp1573
V0
I1
ssVCU
p1574
(dp1575
VL
I1
ssVCT
p1576
(dp1577
V 
I8
sV,
I2
ssVCh
p1578
(dp1579
Va
I10
sVr
I2
sVu
I46
ssVCo
p1580
(dp1581
Vp
I1
sVr
I1
sVm
I3
sVu
I26
sVn
I2
ssVap
p1582
(dp1583
Va
I5
sV 
I1
sVe
I3
sVi
I3
sVo
I3
sVp
I78
sVs
I15
sVr
I2
sVt
I5
ssVp;
p1584
(dp1585
V 
I1
ssVCa
p1586
(dp1587
Vs
I1
sVr
I4
sVt
I9
sVn
I3
ssVCe
p1588
(dp1589
Vr
I1
sVn
I1
ssVt-
p1590
(dp1591
Vr
I1
sV-
I2
ssVp 
p1592
(dp1593
Va
I4
sVc
I1
sVb
I1
sVe
I1
sVg
I1
sVf
I5
sVi
I3
sVh
I7
sVm
I3
sVl
I1
sVo
I2
sVp
I3
sVs
I3
sVu
I4
sVt
I8
sVw
I3
sVv
I1
ssVp'
p1594
(dp1595
Vs
I2
ssVp*
p1596
(dp1597
V*
I1
ssVG 
p1598
(dp1599
VB
I2
ssVp.
p1600
(dp1601
V 
I3
ssV6]
p1602
(dp1603
V 
I1
ssVp,
p1604
(dp1605
V 
I6
ssVn]
p1606
(dp1607
V 
I2
ssVd-
p1608
(dp1609
Vh
I3
sVc
I1
sV-
I4
ssVva
p1610
(dp1611
Vg
I1
sVi
I11
sVl
I23
sVn
I22
sVs
I2
sVr
I6
sVt
I8
ssViz
p1612
(dp1613
Vi
I1
sVe
I12
ssVve
p1614
(dp1615
V 
I384
sVd
I68
sV-
I1
sVm
I4
sV,
I18
sVn
I97
sVs
I24
sVr
I360
sVy
I1
sVx
I6
sV;
I1
sV.
I5
sVl
I14
ssV"b
p1616
(dp1617
Vy
I1
sVu
I3
ssVip
p1618
(dp1619
Va
I3
sV 
I13
sV'
I2
sVi
I2
sV*
I1
sVm
I1
sV,
I3
sVl
I3
sVs
I3
sVt
I5
sV;
I1
sV.
I2
ssVis
p1620
(dp1621
V 
I557
sV-
I1
sV,
I13
sV.
I3
sV;
I1
sV:
I1
sV?
I1
sVa
I17
sVc
I23
sVb
I1
sVe
I50
sVg
I2
sVf
I18
sVi
I25
sVh
I90
sVk
I7
sVm
I7
sVl
I9
sVo
I6
sVp
I27
sVs
I47
sVu
I5
sVt
I106
ssVav
p1622
(dp1623
Vi
I45
sVy
I3
sVe
I294
sVa
I2
sVo
I28
ssV/C
p1624
(dp1625
Va
I1
sVM
I1
ssVit
p1626
(dp1627
Va
I21
sV 
I234
sVc
I1
sV:
I1
sVe
I58
sVi
I43
sVh
I271
sV-
I1
sVl
I3
sVo
I3
sVn
I3
sV)
I1
sVs
I28
sV!
I3
sVu
I20
sVt
I51
sVy
I70
sV;
I4
sV.
I27
sV,
I27
sV?
I3
ssViv
p1628
(dp1629
Vi
I15
sVa
I19
sVe
I149
sVo
I1
ssV-u
p1630
(dp1631
Vp
I1
sVs
I1
ssVih
p1632
(dp1633
Vo
I1
ssVik
p1634
(dp1635
Ve
I32
ssV X
p1636
(dp1637
VI
I5
sV 
I1
sVL
I2
sVX
I20
sVV
I4
ssVim
p1638
(dp1639
Va
I21
sV 
I96
sVe
I65
sVi
I5
sV-
I2
sVm
I18
sV,
I25
sVo
I2
sV.
I13
sVp
I63
sVs
I14
sV!
I2
sVu
I1
sV;
I5
sV:
I1
ssVil
p1640
(dp1641
V 
I10
sVe
I46
sVd
I22
sVf
I1
sV)
I1
sVk
I1
sVl
I234
sV,
I1
sVi
I32
sVs
I5
sVt
I4
sVy
I42
ssVio
p1642
(dp1643
Vd
I3
sVl
I7
sVn
I430
sVs
I1
sVr
I9
sVu
I51
ssVin
p1644
(dp1645
V!
I1
sV 
I394
sV"
I1
sV'
I1
sV-
I8
sV,
I11
sV.
I11
sV;
I3
sV:
I2
sVa
I103
sVc
I76
sVe
I98
sVd
I111
sVg
I703
sVf
I33
sVi
I32
sVh
I1
sVk
I36
sVj
I8
sVl
I15
sVn
I6
sVq
I1
sVs
I73
sVu
I22
sVt
I137
sVw
I46
sVv
I16
sVy
I1
ssVia
p1646
(dp1647
V 
I3
sVb
I13
sVg
I18
sV,
I9
sVl
I22
sVs
I1
sVr
I6
sVt
I26
sVn
I11
ssVvy
p1648
(dp1649
V 
I4
ssVic
p1650
(dp1651
Va
I113
sV 
I11
sVe
I51
sVi
I27
sVh
I122
sVk
I5
sVl
I3
sV,
I2
sV)
I1
sVs
I1
sVu
I26
sVt
I16
sVy
I1
ssVib
p1652
(dp1653
Vi
I6
sVe
I16
sVu
I13
sVl
I42
ssVie
p1654
(dp1655
V 
I1
sVc
I6
sVd
I37
sVf
I5
sV-
I4
sVl
I3
sVn
I70
sVs
I34
sVr
I2
sVu
I9
sVt
I24
sVw
I9
sVv
I38
sV.
I1
ssVid
p1656
(dp1657
Va
I2
sV 
I70
sV:
I2
sVe
I68
sVd
I5
sVi
I5
sV,
I6
sVo
I4
sVn
I2
sV;
I2
sV.
I1
sVl
I3
ssVig
p1658
(dp1659
Va
I1
sVe
I13
sVi
I7
sVh
I107
sVm
I3
sVo
I1
sVn
I24
sVu
I1
ssVif
p1660
(dp1661
V 
I65
sVe
I33
sVf
I12
sVi
I20
sVl
I1
sVu
I1
sVt
I2
sVy
I10
ssV"D
p1662
(dp1663
Vi
I1
sVe
I1
ssV"F
p1664
(dp1665
Vr
I3
ssVaz
p1666
(dp1667
Vi
I2
sVa
I1
sVe
I1
ssV"A
p1668
(dp1669
VS
I1
sVr
I1
sVn
I1
ssV"B
p1670
(dp1671
Vu
I2
ssV"C
p1672
(dp1673
Va
I1
sVe
I1
ssV"w
p1674
(dp1675
Va
I1
sVh
I1
ssV"M
p1676
(dp1677
Va
I1
sVy
I2
ssV/e
p1678
(dp1679
Vt
I2
ssV"O
p1680
(dp1681
Vh
I1
sVf
I1
ssV"H
p1682
(dp1683
Vi
I1
sVe
I2
ssV"I
p1684
(dp1685
V 
I17
sVt
I4
sVn
I1
ssV/a
p1686
(dp1687
Vr
I1
ssV"W
p1688
(dp1689
Vh
I2
ssV"P
p1690
(dp1691
VR
I2
sVr
I4
ssVI,
p1692
(dp1693
V 
I6
ssV"R
p1694
(dp1695
Vi
I1
ssV"S
p1696
(dp1697
Va
I1
sVm
I5
ssV"i
p1698
(dp1699
Vf
I1
sVn
I1
ssVI 
p1700
(dp1701
VD
I1
sVK
I1
sVa
I128
sVc
I79
sVb
I19
sVe
I8
sVd
I33
sVg
I4
sVf
I22
sVi
I4
sVh
I121
sVk
I18
sVm
I39
sVl
I17
sVo
I9
sVn
I22
sVp
I4
sVs
I73
sVr
I23
sVu
I1
sVt
I25
sVw
I78
sVv
I1
sVy
I2
ssVnh
p1702
(dp1703
Va
I10
sVe
I1
ssV"Y
p1704
(dp1705
Vo
I2
ssVIX
p1706
(dp1707
V 
I4
ssV" 
p1708
(dp1709
Va
I1
sVA
I2
sVc
I2
sVB
I1
sVd
I1
sVi
I1
sVh
I4
sVS
I3
sVW
I3
sVI
I6
sVs
I19
sV"
I19
sVt
I1
sVw
I2
sVH
I3
sVr
I2
sVb
I1
sVT
I1
ssVVE
p1710
(dp1711
V 
I4
sVR
I50
sVN
I2
ssV*]
p1712
(dp1713
V 
I3
ssVVI
p1714
(dp1715
VI
I8
sV 
I3
sVD
I1
ssVIS
p1716
(dp1717
V 
I9
sVC
I1
sV"
I1
sVE
I1
sVS
I1
sVT
I2
ssVIR
p1718
(dp1719
V 
I2
sVE
I1
ssVIU
p1720
(dp1721
VM
I1
ssVIT
p1722
(dp1723
V 
I1
sVE
I3
sVI
I2
sVH
I1
sVN
I1
sVY
I4
ssVIV
p1724
(dp1725
V 
I4
sVE
I2
ssVII
p1726
(dp1727
VI
I8
sV 
I17
sV,
I1
ssVIM
p1728
(dp1729
VI
I3
sVP
I1
sVE
I1
sV.
I1
ssVIL
p1730
(dp1731
VI
I3
sV 
I2
ssVIO
p1732
(dp1733
VN
I4
ssVIN
p1734
(dp1735
VA
I3
sV 
I2
sVC
I4
sVE
I7
sVD
I4
sVG
I2
sVT
I2
ssVIA
p1736
(dp1737
VB
I1
sVL
I1
sV.
I5
ssVIC
p1738
(dp1739
VI
I5
sV 
I4
sVU
I1
sVE
I1
sVT
I1
ssVIB
p1740
(dp1741
VI
I1
sVU
I1
ssVHE
p1742
(dp1743
V 
I11
sVR
I15
sV,
I1
ssVID
p1744
(dp1745
V 
I1
sVE
I2
ssV":
p1746
(dp1747
V 
I1
ssVIF
p1748
(dp1749
V 
I3
ssVVa
p1750
(dp1751
Vn
I1
ssVnx
p1752
(dp1753
Vi
I12
ssVVe
p1754
(dp1755
Vr
I67
ssVIs
p1756
(dp1757
V 
I2
ssVTY
p1758
(dp1759
V 
I4
sV;
I1
sV,
I1
ssVVl
p1760
(dp1761
V 
I1
ssVIt
p1762
(dp1763
Va
I1
sV 
I29
sVs
I1
ssVVo
p1764
(dp1765
Vl
I1
ssVIm
p1766
(dp1767
Va
I1
ssVIn
p1768
(dp1769
Vd
I1
sV 
I10
sVt
I1
sVf
I3
ssVd)
p1770
(dp1771
V,
I1
ssV-c
p1772
(dp1773
Vh
I1
sVo
I1
ssVTT
p1774
(dp1775
VM
I1
sVE
I1
ssVIf
p1776
(dp1777
V 
I25
ssV6 
p1778
(dp1779
Vi
I1
sVf
I1
ssVUp
p1780
(dp1781
Vp
I8
sVo
I1
ssVDe
p1782
(dp1783
V 
I25
sVc
I2
sVs
I1
sVp
I1
sVf
I4
ssV(~
p1784
(dp1785
V)
I1
ssVBC
p1786
(dp1787
VD
I2
ssVBL
p1788
(dp1789
VI
I2
ssV(s
p1790
(dp1791
Vu
I1
ssVBO
p1792
(dp1793
VU
I1
ssVBI
p1794
(dp1795
VL
I3
ssV(t
p1796
(dp1797
Vh
I1
ssVTS
p1798
(dp1799
V 
I1
sV*
I2
ssVO?
p1800
(dp1801
V 
I1
ssVBU
p1802
(dp1803
VT
I3
ssV"t
p1804
(dp1805
Vh
I2
ssV(i
p1806
(dp1807
Vf
I2
ssV(o
p1808
(dp1809
Vr
I4
sVn
I1
ssVBR
p1810
(dp1811
VE
I1
sVO
I1
ssV-b
p1812
(dp1813
Vy
I1
sVr
I1
sVu
I2
ssVk,
p1814
(dp1815
V 
I13
ssVR.
p1816
(dp1817
V 
I13
ssVgt
p1818
(dp1819
Vh
I11
ssV4.
p1820
(dp1821
V2
I1
ssVa"
p1822
(dp1823
V 
I1
ssV(_
p1824
(dp1825
V)
I1
ssVTO
p1826
(dp1827
V 
I47
sVO
I1
sV?
I1
ssVBo
p1828
(dp1829
Vx
I1
sVt
I1
ssVBi
p1830
(dp1831
Vt
I1
ssV(T
p1832
(dp1833
Vh
I1
ssVBu
p1834
(dp1835
Vt
I14
ssV(I
p1836
(dp1837
V 
I1
sVn
I1
ssVR*
p1838
(dp1839
V:
I1
ssV-m
p1840
(dp1841
Vi
I2
sVo
I2
ssVr-
p1842
(dp1843
Vi
I7
sVh
I1
sVs
I1
ssV(C
p1844
(dp1845
VM
I1
ssVBy
p1846
(dp1847
V 
I6
ssVgs
p1848
(dp1849
V!
I2
sV 
I26
sV,
I12
sV.
I5
sVt
I1
sV;
I1
ssVOn
p1850
(dp1851
V 
I1
sVe
I3
sVl
I1
ssVOh
p1852
(dp1853
V!
I1
sV,
I1
ssV"G
p1854
(dp1855
Vo
I1
ssVHo
p1856
(dp1857
Vt
I2
sVw
I7
sVn
I1
ssV(*
p1858
(dp1859
V)
I1
ssV-l
p1860
(dp1861
Va
I7
ssV30
p1862
(dp1863
V 
I1
ssV);
p1864
(dp1865
V 
I2
ssVOu
p1866
(dp1867
Vr
I3
sVg
I1
ssVgr
p1868
(dp1869
Va
I29
sVi
I6
sVe
I87
sVy
I6
sVo
I10
ssVOO
p1870
(dp1871
V 
I1
ssVON
p1872
(dp1873
V 
I50
sVC
I1
sVE
I1
sV'
I1
sV,
I1
sV.
I19
sVS
I3
sVT
I1
ssVOM
p1874
(dp1875
VA
I2
sV 
I2
ssVns
p1876
(dp1877
Va
I4
sV 
I80
sVc
I8
sVe
I41
sVf
I1
sVi
I50
sV*
I1
sV-
I1
sV,
I11
sVo
I24
sV.
I14
sVp
I5
sV!
I2
sVu
I10
sVt
I44
sVw
I6
sV;
I3
sV:
I2
sVl
I1
ssVOJ
p1878
(dp1879
VE
I7
ssVOH
p1880
(dp1881
VN
I17
ssVOG
p1882
(dp1883
V.
I1
ssVOF
p1884
(dp1885
V 
I6
ssVOC
p1886
(dp1887
VR
I1
ssVnu
p1888
(dp1889
Va
I5
sVe
I12
sVi
I2
sVm
I2
sVs
I1
sVr
I3
sVt
I5
ssV-o
p1890
(dp1891
Vp
I1
sVf
I1
ssV5%
p1892
(dp1893
V 
I1
ssVOV
p1894
(dp1895
VI
I1
ssVOU
p1896
(dp1897
V 
I8
sVR
I29
sVT
I1
ssVOT
p1898
(dp1899
VI
I1
sV 
I4
sVH
I3
ssVOS
p1900
(dp1901
VS
I1
sVE
I1
ssVOR
p1902
(dp1903
V 
I15
sVE
I1
ssVS.
p1904
(dp1905
V 
I51
ssVb 
p1906
(dp1907
Vh
I1
ssV-n
p1908
(dp1909
Va
I2
sVo
I1
ssVHI
p1910
(dp1911
VS
I8
sVM
I1
ssVHN
p1912
(dp1913
VS
I17
ssV) 
p1914
(dp1915
Va
I1
sVc
I2
sVd
I1
sVt
I2
sVw
I1
sVy
I2
ssVT:
p1916
(dp1917
V 
I1
ssVHA
p1918
(dp1919
VN
I1
sVT
I3
sVD
I1
sVV
I2
ssVU 
p1920
(dp1921
VA
I1
sVc
I1
sV"
I1
sVD
I1
sVG
I1
sVH
I1
sV*
I1
sVU
I1
sV=
I1
ssVU"
p1922
(dp1923
V:
I1
ssVo.
p1924
(dp1925
V 
I8
sV"
I3
sVu
I1
ssVo-
p1926
(dp1927
V 
I1
sVm
I2
sV-
I1
sVd
I3
ssVo,
p1928
(dp1929
V 
I31
ssVa'
p1930
(dp1931
Vs
I13
ssVo!
p1932
(dp1933
V 
I2
ssVo 
p1934
(dp1935
V"
I3
sV*
I1
sVC
I10
sVB
I2
sVE
I2
sVD
I1
sVG
I1
sVI
I5
sVH
I1
sVM
I16
sVL
I14
sVN
I1
sVP
I4
sVS
I6
sVR
I5
sVT
I1
sVY
I1
sVa
I69
sVc
I42
sVb
I75
sVe
I34
sVd
I47
sVg
I30
sVf
I36
sVi
I35
sVh
I102
sVk
I10
sVj
I5
sVm
I127
sVl
I39
sVo
I31
sVn
I33
sVq
I2
sVp
I42
sVs
I90
sVr
I41
sVu
I16
sVt
I103
sVw
I49
sVv
I12
sVy
I40
ssVg;
p1936
(dp1937
V 
I10
ssVHi
p1938
(dp1939
Vs
I8
ssVo;
p1940
(dp1941
V 
I4
ssVo:
p1942
(dp1943
V 
I2
ssVHa
p1944
(dp1945
Vr
I2
sVm
I1
sVv
I4
ssVHe
p1946
(dp1947
Va
I5
sV 
I38
sVr
I23
ssVbd
p1948
(dp1949
Vu
I5
ssVbe
p1950
(dp1951
Va
I14
sV 
I262
sVc
I9
sVe
I76
sVd
I3
sVg
I11
sVf
I29
sVi
I36
sVh
I20
sV-
I2
sVl
I40
sVn
I6
sVs
I19
sVr
I43
sV!
I1
sVt
I35
sVw
I2
sVy
I11
sV;
I1
sV.
I2
sV,
I1
ssV_)
p1952
(dp1953
V 
I1
ssVba
p1954
(dp1955
Vc
I2
sVb
I8
sVd
I3
sVn
I19
sVs
I1
sVr
I4
sVt
I5
ssVbb
p1956
(dp1957
Ve
I4
sVo
I1
ssVbl
p1958
(dp1959
Va
I10
sVe
I156
sVi
I21
sVo
I1
sVu
I2
sVy
I25
ssVbm
p1960
(dp1961
Vi
I9
ssVbo
p1962
(dp1963
Vd
I3
sVm
I1
sVl
I1
sVo
I6
sVr
I3
sVu
I32
sVt
I10
sVv
I2
sVy
I1
sVx
I1
ssVc)
p1964
(dp1965
V 
I1
ssVbi
p1966
(dp1967
Va
I1
sVd
I8
sVl
I21
sVn
I3
sVr
I1
sVt
I5
ssVg:
p1968
(dp1969
V 
I4
ssVa,
p1970
(dp1971
V 
I23
sV-
I3
ssVbt
p1972
(dp1973
Va
I3
sV 
I12
sVe
I5
sVf
I6
sVl
I1
sV,
I1
ssVbu
p1974
(dp1975
Vg
I1
sVn
I1
sVs
I9
sVr
I1
sVt
I194
sVy
I1
ssVUn
p1976
(dp1977
Vi
I6
sVd
I1
sVl
I1
sVf
I1
ssVLi
p1978
(dp1979
Vt
I1
ssVbr
p1980
(dp1981
Va
I2
sVi
I10
sVe
I9
sVo
I38
ssVbs
p1982
(dp1983
Vi
I2
sVe
I12
sVt
I2
sVo
I11
ssVyf
p1984
(dp1985
Vu
I1
ssVAN
p1986
(dp1987
VY
I2
sV 
I23
sVT
I6
ssVby
p1988
(dp1989
Ve
I1
sV 
I147
sV-
I1
sVt
I1
sV,
I1
ssVoo
p1990
(dp1991
V!
I1
sV 
I32
sVd
I37
sVf
I5
sVk
I45
sVm
I24
sVl
I14
sVn
I38
sVp
I2
sVs
I6
sVr
I23
sVt
I1
sV.
I2
sV,
I7
ssVon
p1992
(dp1993
V!
I5
sV 
I482
sV'
I9
sV-
I3
sV,
I100
sV/
I1
sV.
I31
sV;
I23
sV?
I2
sV]
I2
sVa
I43
sVc
I41
sVe
I120
sVd
I67
sVg
I63
sVf
I23
sVi
I23
sVj
I2
sVl
I39
sVo
I9
sVn
I11
sVq
I3
sVp
I1
sVs
I127
sVt
I59
sVv
I50
sVy
I2
ssVom
p1994
(dp1995
Va
I31
sV 
I145
sVe
I140
sVf
I11
sVi
I21
sVm
I31
sV,
I5
sVo
I3
sV.
I11
sVp
I49
sVy
I1
sV>
I1
ssVol
p1996
(dp1997
Va
I1
sV 
I8
sVe
I39
sVd
I24
sVi
I9
sVl
I25
sVo
I11
sV,
I2
sVs
I1
sVn
I1
sVu
I20
sVt
I1
sVv
I11
sVy
I1
sV:
I1
ssVok
p1998
(dp1999
Vi
I4
sV 
I25
sVs
I9
sVe
I24
sV.
I1
ssVoj
p2000
(dp2001
Ve
I28
ssVoi
p2002
(dp2003
Vc
I13
sVd
I4
sVg
I1
sVl
I1
sVn
I44
sVs
I2
sVt
I1
ssVoh
p2004
(dp2005
Vi
I1
sVn
I18
ssVog
p2006
(dp2007
Vi
I4
sVy
I1
sVr
I4
sVe
I12
sVn
I1
ssVof
p2008
(dp2009
V 
I710
sVe
I4
sVf
I21
sVi
I4
sV,
I1
sVo
I3
sV.
I3
sVr
I2
sVt
I16
sV;
I1
ssVoe
p2010
(dp2011
Vs
I21
sVu
I1
sVv
I1
ssVod
p2012
(dp2013
V!
I1
sV 
I31
sVe
I2
sVd
I2
sVg
I3
sVi
I3
sV-
I2
sV,
I3
sVn
I3
sVu
I8
sVa
I1
sVy
I3
sV.
I2
ssVoc
p2014
(dp2015
Va
I3
sVc
I14
sVe
I6
sVi
I9
sVk
I2
sVu
I1
ssVob
p2016
(dp2017
Va
I11
sV 
I1
sVb
I1
sVe
I2
sVj
I8
sVl
I11
sVo
I2
sVs
I9
sVt
I3
ssVoa
p2018
(dp2019
Vc
I5
sVl
I1
ssVUR
p2020
(dp2021
VP
I1
sVC
I28
sV 
I1
ssVUM
p2022
(dp2023
V 
I1
sVB
I1
ssVga
p2024
(dp2025
Vg
I11
sVi
I44
sVl
I6
sVn
I5
sVr
I11
sVt
I3
sVv
I8
sVy
I1
ssVUN
p2026
(dp2027
VI
I1
sVD
I2
ssVH.
p2028
(dp2029
V 
I1
ssVoy
p2030
(dp2031
Va
I4
sV 
I5
sVe
I2
sVf
I1
sVi
I2
sVm
I3
ssVox
p2032
(dp2033
V 
I1
sV.
I1
ssVow
p2034
(dp2035
Va
I6
sV 
I158
sVe
I75
sV'
I1
sVi
I16
sV,
I24
sV.
I3
sVs
I5
sVn
I90
sV!
I1
sV;
I2
sV:
I1
sVl
I6
ssVov
p2036
(dp2037
Vi
I6
sVa
I6
sVe
I81
sVo
I8
ssVou
p2038
(dp2039
V!
I2
sV 
I271
sVb
I29
sVd
I2
sVg
I102
sVl
I199
sVn
I86
sVs
I92
sVr
I374
sVt
I80
sV;
I4
sV.
I11
sV,
I40
sV?
I1
ssVot
p2040
(dp2041
Va
I6
sV 
I297
sVe
I22
sVi
I17
sVh
I183
sV*
I1
sV,
I12
sVo
I1
sV.
I3
sV)
I1
sVt
I2
sV;
I1
ssVos
p2042
(dp2043
Va
I2
sVe
I80
sVi
I21
sVp
I6
sVs
I43
sVu
I2
sVt
I63
ssVor
p2044
(dp2045
V 
I382
sV)
I1
sV*
I1
sV,
I11
sV.
I2
sV;
I2
sV:
I3
sVa
I4
sVc
I7
sVb
I8
sVe
I142
sVd
I56
sVg
I18
sVi
I10
sVk
I10
sVm
I43
sVl
I21
sVo
I4
sVn
I12
sVs
I13
sVr
I21
sVt
I100
sVw
I8
sVy
I15
ssVUC
p2046
(dp2047
VH
I1
ssVop
p2048
(dp2049
V 
I2
sVe
I48
sVi
I19
sVl
I2
sVo
I6
sVp
I14
sVr
I7
sVu
I1
sVt
I2
sVy
I14
ssV!!
p2050
(dp2051
V 
I1
ssV! 
p2052
(dp2053
VA
I1
sVC
I2
sVB
I1
sVD
I1
sVG
I2
sVF
I3
sVI
I17
sVH
I5
sVK
I1
sVM
I3
sVL
I1
sVO
I1
sVN
I1
sVP
I1
sVT
I4
sVW
I3
sVa
I3
sVb
I4
sVf
I1
sVi
I1
sVh
I2
sVj
I1
sVt
I5
ssVC 
p2054
(dp2055
VD
I2
sVo
I1
ssV**
p2056
(dp2057
V 
I8
sVE
I1
sVF
I1
sVI
I1
sV*
I17
sVS
I2
sVT
I4
sVW
I1
ssVh-
p2058
(dp2059
V-
I1
ssVNo
p2060
(dp2061
V 
I3
sV;
I1
sVt
I5
sVw
I1
sV,
I3
ssV!)
p2062
(dp2063
V 
I1
ssVNa
p2064
(dp2065
Vy
I1
ssV!*
p2066
(dp2067
V 
I1
sV*
I1
ssVNe
p2068
(dp2069
Vi
I1
sVv
I1
ssVh.
p2070
(dp2071
V 
I13
sV"
I1
ssV[E
p2072
(dp2073
Vt
I1
ssV[D
p2074
(dp2075
Va
I1
ssVh 
p2076
(dp2077
V/
I1
sV2
I1
sV8
I1
sVC
I2
sVF
I2
sVI
I35
sVH
I1
sVM
I9
sVL
I6
sVS
I2
sVR
I8
sVa
I100
sVc
I10
sVb
I6
sVe
I8
sVd
I6
sVg
I7
sVf
I12
sVi
I25
sVh
I68
sVk
I2
sVj
I2
sVm
I51
sVl
I7
sVo
I35
sVn
I4
sVp
I15
sVs
I28
sVr
I6
sVu
I4
sVt
I65
sVw
I26
sVv
I1
sVy
I19
ssVh!
p2078
(dp2079
V 
I1
sV"
I1
ssVh'
p2080
(dp2081
Vs
I4
ssV[M
p2082
(dp2083
Va
I1
ssVeh
p2084
(dp2085
Va
I19
sVi
I1
sVe
I7
ssVNI
p2086
(dp2087
VT
I2
ssV"a
p2088
(dp2089
Vs
I1
ssV.,
p2090
(dp2091
V 
I18
ssVek
p2092
(dp2093
V 
I5
sVs
I6
sV,
I2
sV.
I1
ssVu;
p2094
(dp2095
V 
I4
ssV[t
p2096
(dp2097
Vr
I1
sVo
I2
ssV. 
p2098
(dp2099
V 
I27
sV"
I13
sV.
I4
sVA
I30
sVC
I10
sVB
I16
sVE
I4
sVD
I33
sVG
I2
sVF
I16
sVI
I209
sVH
I69
sVK
I2
sVJ
I34
sVM
I51
sVL
I21
sVO
I9
sVN
I9
sVP
I7
sVS
I61
sVR
I7
sVU
I2
sVT
I45
sVW
I33
sVV
I73
sVY
I23
sVa
I2
sVb
I1
sVi
I1
sVw
I2
ssVNA
p2100
(dp2101
VL
I3
ssVNB
p2102
(dp2103
VE
I7
ssV[x
p2104
(dp2105
Vx
I1
ssVND
p2106
(dp2107
VI
I1
sV 
I1
sV*
I2
sVE
I5
sV,
I1
ssVNE
p2108
(dp2109
V 
I7
sVD
I1
sVG
I1
sVS
I1
sVW
I1
sVY
I1
ssVNG
p2110
(dp2111
V 
I2
ssVNY
p2112
(dp2113
V 
I2
ssVu.
p2114
(dp2115
V 
I13
ssV[g
p2116
(dp2117
Ve
I1
ssVrw
p2118
(dp2119
Va
I14
sVi
I4
ssVMO
p2120
(dp2121
VN
I1
ssV.2
p2122
(dp2123
V9
I1
ssVNS
p2124
(dp2125
V 
I2
sVE
I1
sVO
I17
ssVNT
p2126
(dp2127
V!
I2
sVA
I2
sV 
I1
sVI
I3
sV*
I1
sVR
I1
sVY
I2
ssVNU
p2128
(dp2129
VM
I1
ssVhy
p2130
(dp2131
V 
I13
sVs
I2
sV,
I4
sVp
I2
ssVN,
p2132
(dp2133
V 
I1
ssV-t
p2134
(dp2135
Vi
I2
sVh
I4
sVm
I4
sVo
I1
sVw
I1
ssVN.
p2136
(dp2137
V 
I19
ssVhr
p2138
(dp2139
Vi
I2
sVu
I3
sVe
I9
sVo
I8
ssVhs
p2140
(dp2141
V 
I9
sV,
I1
ssVg-
p2142
(dp2143
Vh
I1
sVr
I6
sV-
I4
ssVka
p2144
(dp2145
Vb
I2
ssVht
p2146
(dp2147
V 
I90
sVe
I50
sVf
I7
sVi
I1
sV,
I12
sV.
I3
sVs
I5
sV;
I1
sVl
I1
ssVhu
p2148
(dp2149
Vs
I21
sVr
I54
sVm
I9
sVt
I2
sVn
I5
ssVTP
p2150
(dp2151
V 
I2
ssVhh
p2152
(dp2153
Vi
I46
sVe
I1
ssVhi
p2154
(dp2155
Vc
I117
sVb
I1
sVe
I3
sVg
I13
sVm
I153
sVl
I85
sVo
I3
sVn
I149
sVp
I20
sVs
I283
sVr
I5
sVt
I13
sVv
I2
ssVhn
p2156
(dp2157
Vs
I18
sVe
I1
ssVho
p2158
(dp2159
V 
I30
sVc
I1
sVe
I1
sVd
I1
sVi
I5
sVm
I30
sVl
I23
sVo
I15
sVn
I10
sVp
I29
sVs
I37
sVr
I30
sVu
I184
sVw
I78
sV,
I7
ssVhl
p2160
(dp2161
Vy
I14
sVe
I1
ssVhm
p2162
(dp2163
Ve
I19
ssVhb
p2164
(dp2165
Vo
I1
ssVD*
p2166
(dp2167
V 
I1
sVT
I1
ssVha
p2168
(dp2169
Ve
I2
sVd
I97
sVk
I1
sVm
I3
sVl
I67
sVn
I85
sVp
I47
sVs
I113
sVr
I47
sVt
I403
sVv
I281
sVz
I1
ssVhf
p2170
(dp2171
Vu
I4
ssVs?
p2172
(dp2173
V 
I2
sV"
I2
ssVhe
p2174
(dp2175
Va
I67
sV 
I1028
sVc
I2
sVe
I4
sVd
I53
sVi
I20
sV-
I1
sVm
I35
sVl
I13
sVn
I102
sVs
I28
sVr
I827
sVt
I9
sVy
I29
sV;
I1
sV.
I1
sV,
I10
ssV[3
p2176
(dp2177
V]
I2
ssV[2
p2178
(dp2179
V]
I3
ssV[1
p2180
(dp2181
V0
I1
sV]
I3
ssV-w
p2182
(dp2183
Va
I1
sVe
I1
ssVuy
p2184
(dp2185
V 
I1
ssV*S
p2186
(dp2187
VT
I2
ssVXV
p2188
(dp2189
VI
I8
sV 
I3
sVl
I1
ssVut
p2190
(dp2191
Va
I3
sV 
I265
sVe
I51
sVi
I22
sVh
I13
sVm
I3
sV,
I11
sV.
I1
sVu
I4
sVt
I2
sVy
I14
sV;
I1
ssVgy
p2192
(dp2193
V 
I1
sV,
I1
ssV.c
p2194
(dp2195
Vs
I1
sVo
I1
ssVup
p2196
(dp2197
V 
I14
sVe
I11
sVd
I1
sVi
I3
sV,
I3
sVo
I5
sV.
I1
sVp
I21
sVs
I2
sVr
I1
sVu
I1
sVt
I4
ssVus
p2198
(dp2199
Va
I84
sV 
I70
sVb
I17
sVe
I79
sVi
I27
sVh
I3
sV,
I10
sVn
I10
sVp
I9
sVs
I2
sVu
I4
sVt
I136
sVy
I7
sV;
I1
sV.
I5
sVl
I7
ssVur
p2200
(dp2201
Va
I32
sV 
I238
sVc
I75
sVb
I2
sVe
I122
sVg
I10
sV@
I1
sVi
I14
sVh
I1
sV,
I5
sVn
I33
sVp
I13
sVs
I79
sVr
I5
sV!
I1
sVt
I9
sVv
I1
sVy
I1
sV;
I2
sV.
I6
ssVum
p2202
(dp2203
Va
I2
sV 
I3
sVb
I7
sVe
I2
sVi
I3
sVm
I9
sV,
I2
sVo
I3
sVp
I3
sVs
I10
ssVul
p2204
(dp2205
Va
I37
sV 
I33
sVe
I3
sVd
I198
sVg
I5
sVi
I3
sVl
I18
sVo
I5
sV.
I5
sVs
I1
sV!
I1
sVt
I12
sVy
I1
sV;
I1
sVn
I1
sV,
I2
ssV.z
p2206
(dp2207
Vi
I1
ssVun
p2208
(dp2209
Va
I16
sV 
I5
sVc
I24
sVe
I23
sVd
I66
sVg
I29
sVf
I5
sVi
I27
sVh
I10
sVk
I6
sVm
I1
sVl
I6
sVn
I5
sVp
I4
sVs
I3
sVr
I1
sVu
I1
sVt
I47
sVw
I5
sV.
I1
ssVui
p2210
(dp2211
Va
I1
sVc
I1
sVe
I4
sVl
I6
sVn
I6
sVp
I1
sVs
I9
sVr
I15
sVu
I1
sVt
I28
sVv
I4
ssVue
p2212
(dp2213
V 
I21
sVd
I12
sVl
I2
sV.
I1
sVs
I24
sVt
I5
sVn
I22
sV,
I4
ssVud
p2214
(dp2215
V 
I1
sVe
I29
sVd
I5
sVg
I14
sVi
I9
sV.
I1
ssVug
p2216
(dp2217
V 
I1
sVl
I1
sVg
I3
sVh
I150
ssV.s
p2218
(dp2219
Ve
I1
ssV.t
p2220
(dp2221
Vy
I1
sVx
I3
ssV.u
p2222
(dp2223
Vi
I1
ssVuc
p2224
(dp2225
Va
I8
sVc
I5
sVe
I10
sVi
I1
sVh
I123
sVk
I9
sV.
I1
sVt
I21
ssVub
p2226
(dp2227
Vb
I4
sVd
I5
sVj
I13
sVm
I9
sVl
I10
sVs
I3
sVt
I22
ssVac
p2228
(dp2229
Va
I2
sV 
I1
sVc
I45
sVe
I37
sVi
I4
sVh
I55
sVk
I8
sVq
I16
sVr
I5
sVu
I2
sVt
I59
sVy
I12
ssVab
p2230
(dp2231
Vi
I16
sVh
I3
sVj
I1
sVl
I128
sVo
I33
sVs
I15
sVu
I1
ssVae
p2232
(dp2233
Vl
I2
ssVad
p2234
(dp2235
Va
I4
sV 
I117
sVe
I50
sVd
I12
sVf
I5
sVi
I12
sVm
I14
sV,
I3
sVo
I2
sVn
I1
sVs
I2
sVu
I2
sVv
I23
sVy
I109
sV.
I1
sVl
I1
ssVag
p2236
(dp2237
Va
I38
sVe
I79
sVg
I3
sVi
I16
sVo
I8
sVr
I18
sVu
I3
ssVaf
p2238
(dp2239
Vr
I9
sVe
I3
sVt
I18
sVf
I59
ssVai
p2240
(dp2241
Vd
I39
sVg
I1
sVm
I10
sVl
I11
sVn
I178
sVs
I6
sVr
I22
sVt
I10
ssVak
p2242
(dp2243
Va
I1
sV 
I15
sVe
I97
sVf
I5
sVi
I19
sVn
I1
sVs
I3
ssVTu
p2244
(dp2245
Ve
I2
ssVam
p2246
(dp2247
Va
I5
sV 
I121
sVb
I2
sVe
I110
sVi
I33
sVm
I6
sV,
I9
sVo
I3
sVp
I7
sVu
I5
ssVal
p2248
(dp2249
Va
I5
sV 
I91
sVc
I3
sVe
I15
sVd
I78
sVf
I8
sVi
I12
sVk
I12
sVm
I13
sVl
I277
sVo
I24
sV.
I5
sVs
I9
sVr
I8
sVu
I4
sVt
I25
sVw
I27
sVy
I1
sV,
I12
ssVao
p2250
(dp2251
Vr
I4
ssVan
p2252
(dp2253
V!
I2
sV 
I307
sV'
I17
sV,
I35
sV.
I9
sV;
I7
sV:
I1
sVa
I12
sVc
I83
sVe
I8
sVd
I717
sVg
I50
sVi
I17
sVk
I7
sVl
I2
sVo
I13
sVn
I67
sVq
I5
sVs
I25
sVt
I68
sVw
I4
sVv
I1
sVy
I103
sVx
I12
ssVTo
p2254
(dp2255
V 
I11
sV-
I1
ssVas
p2256
(dp2257
Va
I3
sV 
I521
sVc
I4
sVe
I28
sVi
I32
sVh
I7
sVk
I9
sV,
I3
sVo
I28
sV.
I1
sVp
I1
sVs
I45
sV!
I1
sVu
I21
sVt
I76
sVy
I13
sV;
I1
ssVar
p2258
(dp2259
Va
I35
sV 
I114
sVc
I15
sVb
I1
sVe
I138
sVd
I69
sVg
I6
sVf
I2
sVi
I67
sVk
I16
sVm
I21
sVl
I28
sVo
I2
sVn
I16
sVs
I31
sVr
I80
sVt
I121
sVy
I31
sV;
I1
sV.
I2
sV,
I4
ssVau
p2260
(dp2261
Vc
I1
sVd
I2
sVg
I47
sVl
I6
sVn
I10
sVs
I20
sVt
I12
ssVat
p2262
(dp2263
Va
I1
sV 
I560
sVc
I15
sVe
I176
sV'
I1
sVi
I215
sVh
I45
sV,
I12
sVo
I3
sVl
I4
sVr
I2
sVu
I27
sVt
I87
sVy
I1
sV;
I1
sV.
I1
ssVTh
p2264
(dp2265
Va
I4
sVe
I47
sVi
I16
sVo
I3
sVr
I2
sVu
I4
ssVTi
p2266
(dp2267
Vm
I1
ssVay
p2268
(dp2269
Va
I1
sV 
I140
sVe
I5
sV'
I1
sVi
I7
sV,
I16
sV.
I11
sVs
I43
sV;
I8
ssVax
p2270
(dp2271
V 
I2
sVe
I2
ssVTe
p2272
(dp2273
Vx
I1
sVl
I1
ssV80
p2274
(dp2275
V0
I1
sV 
I1
ssVAf
p2276
(dp2277
Vt
I3
ssV(a
p2278
(dp2279
V 
I1
sVs
I3
sVt
I1
sVn
I2
ssVni
p2280
(dp2281
Va
I2
sVc
I11
sVe
I18
sVg
I9
sVf
I2
sVl
I1
sVo
I26
sVn
I50
sVs
I24
sVu
I1
sVt
I24
sVv
I5
ssVnj
p2282
(dp2283
Vu
I8
sVe
I2
sVo
I5
ssVnk
p2284
(dp2285
V 
I27
sVe
I1
sVf
I1
sVi
I9
sV,
I7
sVs
I4
ssVnl
p2286
(dp2287
Vy
I56
sVa
I1
sVi
I1
sVu
I5
sVe
I2
ssVnw
p2288
(dp2289
Va
I46
sVh
I4
sVe
I2
sVi
I2
sVo
I1
ssVnn
p2290
(dp2291
Vi
I6
sVe
I42
sVu
I1
sVo
I42
ssVno
p2292
(dp2293
V 
I72
sVc
I2
sVb
I1
sVe
I1
sVf
I1
sVi
I1
sVm
I3
sVn
I70
sVs
I1
sVr
I20
sVu
I29
sVt
I345
sVw
I134
ssV46
p2294
(dp2295
V]
I1
ssVna
p2296
(dp2297
Vc
I2
sVb
I19
sVd
I1
sVm
I7
sVl
I99
sVn
I12
sVr
I7
sVt
I67
sVv
I1
sVy
I1
ssVnb
p2298
(dp2299
Ve
I15
ssVnc
p2300
(dp2301
Ve
I223
sVi
I15
sVh
I3
sVl
I34
sVo
I18
sVr
I7
sVu
I4
sVt
I2
sVy
I12
ssVnd
p2302
(dp2303
Va
I7
sV 
I775
sV"
I1
sVe
I127
sV'
I5
sVi
I35
sV-
I3
sV,
I34
sVo
I26
sVn
I8
sVs
I43
sVr
I3
sVu
I26
sV;
I6
sV.
I7
sV?
I1
sVl
I3
ssVne
p2304
(dp2305
V 
I94
sV'
I2
sV,
I25
sV.
I10
sV;
I5
sV?
I3
sVa
I11
sVc
I31
sVe
I9
sVd
I71
sVg
I9
sVf
I3
sVi
I6
sVm
I3
sVo
I2
sVn
I4
sVq
I1
sVs
I91
sVr
I47
sVt
I5
sVw
I14
sVv
I44
sVy
I13
sVx
I18
ssVnf
p2306
(dp2307
Va
I2
sVe
I9
sVi
I16
sVl
I11
sVo
I19
sVr
I1
sVu
I7
ssVng
p2308
(dp2309
Va
I12
sV 
I609
sV!
I1
sVe
I40
sV'
I7
sVf
I19
sVi
I4
sV-
I11
sVl
I11
sVo
I1
sV.
I22
sVs
I47
sVr
I14
sVu
I9
sVt
I11
sV;
I10
sV:
I4
sV,
I39
sV?
I3
ssVTN
p2310
(dp2311
VE
I1
ssVny
p2312
(dp2313
V 
I80
sVb
I1
sV)
I2
sVm
I1
sV,
I1
sVo
I7
sV.
I2
sVt
I12
sVw
I1
ssVnz
p2314
(dp2315
Va
I2
ssVTM
p2316
(dp2317
VA
I1
sV 
I1
ssVTH
p2318
(dp2319
VI
I2
sVA
I2
sVE
I20
sV.
I1
ssVTI
p2320
(dp2321
VA
I1
sVC
I2
sVE
I2
sVO
I2
sVV
I1
ssVnp
p2322
(dp2323
Vr
I2
sVl
I3
ssVnq
p2324
(dp2325
Vu
I11
ssVnr
p2326
(dp2327
Va
I3
sVi
I1
sVe
I1
ssVTE
p2328
(dp2329
VX
I6
sVR
I1
sVD
I3
sVN
I8
ssVnt
p2330
(dp2331
Va
I29
sV 
I220
sVe
I113
sVf
I1
sVi
I95
sVh
I18
sVm
I8
sV,
I45
sVo
I22
sV.
I29
sVs
I33
sVr
I34
sV!
I9
sVy
I3
sVu
I1
sV;
I12
sV?
I1
sVl
I30
ssVHu
p2332
(dp2333
Vr
I1
sVm
I2
sVn
I1
ssVnv
p2334
(dp2335
Vi
I39
sVa
I2
sVe
I26
sVy
I1
ssVTA
p2336
(dp2337
VB
I1
sVR
I2
sVL
I1
ssVa 
p2338
(dp2339
V"
I1
sVE
I1
sVD
I1
sVM
I1
sVP
I1
sVU
I1
sVV
I2
sVa
I4
sVc
I25
sVb
I6
sVe
I1
sVd
I28
sVg
I16
sVf
I29
sVi
I9
sVh
I18
sVk
I3
sVj
I1
sVm
I41
sVl
I29
sVo
I7
sVn
I4
sVq
I1
sVp
I18
sVs
I41
sVr
I18
sVu
I1
sVt
I14
sVw
I30
sVv
I13
sVy
I9
ssVAC
p2340
(dp2341
VH
I1
sVT
I1
ssVAB
p2342
(dp2343
VI
I2
sVO
I1
ssV's
p2344
(dp2345
V 
I115
sV,
I3
sV.
I2
ssVAD
p2346
(dp2347
VY
I35
sV 
I1
sVE
I1
sV,
I1
ssVAG
p2348
(dp2349
VE
I3
ssVE,
p2350
(dp2351
V 
I2
ssVAI
p2352
(dp2353
VM
I1
sVL
I1
sVN
I2
ssVxu
p2354
(dp2355
Vl
I1
ssVAM
p2356
(dp2357
VA
I3
sVE
I4
ssVAL
p2358
(dp2359
VI
I5
sV 
I1
sVL
I2
sVD
I3
sV,
I1
ssVa.
p2360
(dp2361
V 
I2
sVt
I1
ssVy:
p2362
(dp2363
V 
I1
ssVT,
p2364
(dp2365
V 
I2
ssVAR
p2366
(dp2367
V 
I2
sVR
I4
sVE
I2
sVT
I3
ssVT*
p2368
(dp2369
V 
I2
sV*
I2
ssVAT
p2370
(dp2371
V 
I2
sV:
I1
sVT
I1
sVH
I8
ssVAV
p2372
(dp2373
VE
I2
sVO
I1
ssVAY
p2374
(dp2375
V 
I1
ssVa;
p2376
(dp2377
V 
I3
ssV-s
p2378
(dp2379
Vi
I1
sVa
I1
sVu
I2
sVh
I1
ssVg!
p2380
(dp2381
V 
I1
ssVT 
p2382
(dp2383
VG
I8
sVP
I1
sVf
I1
sVI
I3
sVH
I1
sVM
I1
sVL
I2
sVO
I1
sVN
I3
sVp
I2
sVm
I1
sVi
I1
sVd
I1
ssVT!
p2384
(dp2385
V 
I1
sV*
I1
ssV"o
p2386
(dp2387
Vr
I1
sVn
I1
ssVn*
p2388
(dp2389
V*
I2
ssV'T
p2390
(dp2391
V 
I1
ssVn,
p2392
(dp2393
V 
I182
sV"
I1
ssVAd
p2394
(dp2395
Vi
I8
ssVn.
p2396
(dp2397
V 
I68
sV"
I3
ssVn/
p2398
(dp2399
VC
I1
ssVn 
p2400
(dp2401
V"
I1
sV/
I1
sV1
I1
sV3
I1
sV2
I1
sV5
I1
sV9
I1
sVA
I2
sVE
I7
sVF
I4
sVI
I30
sVK
I1
sVM
I8
sVL
I13
sVS
I5
sVR
I3
sVU
I4
sVT
I3
sVW
I3
sVV
I2
sV[
I1
sVa
I154
sVc
I31
sVb
I51
sVe
I50
sVd
I26
sVg
I19
sVf
I52
sVi
I87
sVh
I109
sVk
I5
sVj
I3
sVm
I91
sVl
I19
sVo
I127
sVn
I14
sVp
I31
sVs
I77
sVr
I24
sVu
I21
sVt
I254
sVw
I88
sVv
I10
sVy
I41
ssVn!
p2402
(dp2403
V 
I8
sV"
I1
ssVn"
p2404
(dp2405
V 
I1
ssVTR
p2406
(dp2407
VI
I2
sVA
I1
ssVAm
p2408
(dp2409
V 
I1
sVo
I3
ssVAl
p2410
(dp2411
Vi
I9
sVl
I5
ssVn'
p2412
(dp2413
Vs
I26
sVt
I1
ssVn:
p2414
(dp2415
V 
I4
ssVn;
p2416
(dp2417
V 
I39
ssVAu
p2418
(dp2419
Vs
I6
ssVAt
p2420
(dp2421
V 
I11
ssVAw
p2422
(dp2423
Va
I1
ssVn?
p2424
(dp2425
V 
I3
ssVn1
p2426
(dp2427
V1
I1
sV0
I3
ssVG"
p2428
(dp2429
V 
I1
sssb.